

Microchip Technology PIC LITE Macro Assembler V1.42 build -159332390 
                                                                                               Fri Jan 26 10:29:36 2018

Microchip Technology Omniscient Code Generator v1.42 (Free mode) build 201704130522
     1                           	processor	16F18323
     2                           	opt	pw 120
     3                           	opt	lm
     4                           	psect	nvBANK0,global,class=BANK0,space=1,delta=1
     5                           	psect	cinit,global,class=CODE,merge=1,delta=2
     6                           	psect	bssCOMMON,global,class=COMMON,space=1,delta=1
     7                           	psect	bssBANK0,global,class=BANK0,space=1,delta=1
     8                           	psect	cstackCOMMON,global,class=COMMON,space=1,delta=1
     9                           	psect	cstackBANK0,global,class=BANK0,space=1,delta=1
    10                           	psect	maintext,global,class=CODE,merge=1,split=1,delta=2
    11                           	psect	text1,local,class=CODE,merge=1,delta=2
    12                           	psect	text2,local,class=CODE,merge=1,delta=2
    13                           	psect	text3,local,class=CODE,merge=1,delta=2
    14                           	psect	text4,local,class=CODE,merge=1,delta=2
    15                           	psect	text5,local,class=CODE,merge=1,delta=2
    16                           	psect	text6,local,class=CODE,merge=1,delta=2
    17                           	psect	text7,local,class=CODE,merge=1,delta=2
    18                           	psect	text8,local,class=CODE,merge=1,delta=2
    19                           	psect	text9,local,class=CODE,merge=1,delta=2
    20                           	psect	text10,local,class=CODE,merge=1,delta=2
    21                           	psect	text11,local,class=CODE,merge=1,delta=2
    22                           	psect	text12,local,class=CODE,merge=1,delta=2
    23                           	psect	text13,local,class=CODE,merge=1,delta=2
    24                           	psect	text14,local,class=CODE,merge=1,delta=2
    25                           	psect	text15,local,class=CODE,merge=1,delta=2
    26                           	psect	text16,local,class=CODE,merge=1,delta=2
    27                           	psect	text17,local,class=CODE,merge=1,delta=2
    28                           	psect	text18,local,class=CODE,merge=1,delta=2
    29                           	psect	intentry,global,class=CODE,delta=2
    30                           	psect	text20,local,class=CODE,merge=1,delta=2
    31                           	psect	text21,local,class=CODE,merge=1,delta=2
    32                           	psect	text22,local,class=CODE,merge=1,delta=2
    33                           	dabs	1,0x7E,2
    34  0000                     
    35                           ; Version 1.42
    36                           ; Generated 13/04/2017 GMT
    37                           ; 
    38                           ; Copyright © 2017, Microchip Technology Inc. and its subsidiaries ("Microchip")
    39                           ; All rights reserved.
    40                           ; 
    41                           ; This software is developed by Microchip Technology Inc. and its subsidiaries ("Microch
      +                          ip").
    42                           ; 
    43                           ; Redistribution and use in source and binary forms, with or without modification, are
    44                           ; permitted provided that the following conditions are met:
    45                           ; 
    46                           ;     1. Redistributions of source code must retain the above copyright notice, this lis
      +                          t of
    47                           ;        conditions and the following disclaimer.
    48                           ; 
    49                           ;     2. Redistributions in binary form must reproduce the above copyright notice, this 
      +                          list
    50                           ;        of conditions and the following disclaimer in the documentation and/or other
    51                           ;        materials provided with the distribution.
    52                           ; 
    53                           ;     3. Microchip's name may not be used to endorse or promote products derived from th
      +                          is
    54                           ;        software without specific prior written permission.
    55                           ; 
    56                           ; THIS SOFTWARE IS PROVIDED BY MICROCHIP "AS IS" AND ANY EXPRESS OR IMPLIED WARRANTIES,
    57                           ; INCLUDING, BUT NOT LIMITED TO, THE IMPLIED WARRANTIES OF MERCHANTABILITY AND FITNESS F
      +                          OR
    58                           ; PURPOSE ARE DISCLAIMED.  IN NO EVENT SHALL MICROCHIP BE LIABLE FOR ANY DIRECT, INDIREC
      +                          T,
    59                           ; INCIDENTAL, SPECIAL, EXEMPLARY, OR CONSEQUENTIAL DAMAGES (INCLUDING BUT NOT LIMITED TO
    60                           ; PROCUREMENT OF SUBSTITUTE GOODS OR SERVICES; LOSS OF USE, DATA OR PROFITS; OR BUSINESS
    61                           ; INTERRUPTION) HOWSOEVER CAUSED AND ON ANY THEORY OF LIABILITY, WHETHER IN CONTRACT, ST
      +                          RICT
    62                           ; LIABILITY, OR TORT (INCLUDING NEGLIGENCE OR OTHERWISE) ARISING IN ANY WAY OUT OF THE U
      +                          SE OF
    63                           ; THIS SOFTWARE, EVEN IF ADVISED OF THE POSSIBILITY OF SUCH DAMAGE.
    64                           ; 
    65                           ; 
    66                           ; Code-generator required, PIC16F18323 Definitions
    67                           ; 
    68                           ; SFR Addresses
    69  0000                     	;# 
    70  0001                     	;# 
    71  0002                     	;# 
    72  0003                     	;# 
    73  0004                     	;# 
    74  0005                     	;# 
    75  0006                     	;# 
    76  0007                     	;# 
    77  0008                     	;# 
    78  0009                     	;# 
    79  000A                     	;# 
    80  000B                     	;# 
    81  000C                     	;# 
    82  000E                     	;# 
    83  0010                     	;# 
    84  0011                     	;# 
    85  0012                     	;# 
    86  0013                     	;# 
    87  0014                     	;# 
    88  0015                     	;# 
    89  0015                     	;# 
    90  0016                     	;# 
    91  0016                     	;# 
    92  0017                     	;# 
    93  0018                     	;# 
    94  0019                     	;# 
    95  0019                     	;# 
    96  001A                     	;# 
    97  001B                     	;# 
    98  001C                     	;# 
    99  001D                     	;# 
   100  001E                     	;# 
   101  001F                     	;# 
   102  008C                     	;# 
   103  008E                     	;# 
   104  0090                     	;# 
   105  0091                     	;# 
   106  0092                     	;# 
   107  0093                     	;# 
   108  0094                     	;# 
   109  0097                     	;# 
   110  009B                     	;# 
   111  009B                     	;# 
   112  009C                     	;# 
   113  009D                     	;# 
   114  009E                     	;# 
   115  009F                     	;# 
   116  010C                     	;# 
   117  010E                     	;# 
   118  0111                     	;# 
   119  0112                     	;# 
   120  0113                     	;# 
   121  0114                     	;# 
   122  0115                     	;# 
   123  0116                     	;# 
   124  0117                     	;# 
   125  0118                     	;# 
   126  0119                     	;# 
   127  018C                     	;# 
   128  018E                     	;# 
   129  0197                     	;# 
   130  0199                     	;# 
   131  0199                     	;# 
   132  0199                     	;# 
   133  019A                     	;# 
   134  019A                     	;# 
   135  019A                     	;# 
   136  019B                     	;# 
   137  019B                     	;# 
   138  019B                     	;# 
   139  019B                     	;# 
   140  019B                     	;# 
   141  019C                     	;# 
   142  019C                     	;# 
   143  019C                     	;# 
   144  019D                     	;# 
   145  019D                     	;# 
   146  019D                     	;# 
   147  019E                     	;# 
   148  019E                     	;# 
   149  019E                     	;# 
   150  019F                     	;# 
   151  019F                     	;# 
   152  019F                     	;# 
   153  019F                     	;# 
   154  019F                     	;# 
   155  020C                     	;# 
   156  020E                     	;# 
   157  0211                     	;# 
   158  0211                     	;# 
   159  0212                     	;# 
   160  0212                     	;# 
   161  0213                     	;# 
   162  0213                     	;# 
   163  0214                     	;# 
   164  0214                     	;# 
   165  0215                     	;# 
   166  0215                     	;# 
   167  0215                     	;# 
   168  0215                     	;# 
   169  0216                     	;# 
   170  0216                     	;# 
   171  0217                     	;# 
   172  0217                     	;# 
   173  028C                     	;# 
   174  028E                     	;# 
   175  0291                     	;# 
   176  0291                     	;# 
   177  0292                     	;# 
   178  0293                     	;# 
   179  0294                     	;# 
   180  0295                     	;# 
   181  0295                     	;# 
   182  0296                     	;# 
   183  0297                     	;# 
   184  0298                     	;# 
   185  030C                     	;# 
   186  030E                     	;# 
   187  038C                     	;# 
   188  038E                     	;# 
   189  0391                     	;# 
   190  0392                     	;# 
   191  0393                     	;# 
   192  0397                     	;# 
   193  0398                     	;# 
   194  0399                     	;# 
   195  039A                     	;# 
   196  039C                     	;# 
   197  039D                     	;# 
   198  039E                     	;# 
   199  039F                     	;# 
   200  0498                     	;# 
   201  0498                     	;# 
   202  0499                     	;# 
   203  049A                     	;# 
   204  049B                     	;# 
   205  049B                     	;# 
   206  049C                     	;# 
   207  049D                     	;# 
   208  049E                     	;# 
   209  049F                     	;# 
   210  0617                     	;# 
   211  0618                     	;# 
   212  0619                     	;# 
   213  0619                     	;# 
   214  061A                     	;# 
   215  061B                     	;# 
   216  061C                     	;# 
   217  061C                     	;# 
   218  0691                     	;# 
   219  0692                     	;# 
   220  0693                     	;# 
   221  0694                     	;# 
   222  0695                     	;# 
   223  0696                     	;# 
   224  0697                     	;# 
   225  0698                     	;# 
   226  0699                     	;# 
   227  0891                     	;# 
   228  0891                     	;# 
   229  0891                     	;# 
   230  0891                     	;# 
   231  0891                     	;# 
   232  0891                     	;# 
   233  0892                     	;# 
   234  0892                     	;# 
   235  0892                     	;# 
   236  0893                     	;# 
   237  0893                     	;# 
   238  0893                     	;# 
   239  0893                     	;# 
   240  0893                     	;# 
   241  0893                     	;# 
   242  0894                     	;# 
   243  0894                     	;# 
   244  0894                     	;# 
   245  0895                     	;# 
   246  0895                     	;# 
   247  0895                     	;# 
   248  0896                     	;# 
   249  0896                     	;# 
   250  0896                     	;# 
   251  089B                     	;# 
   252  0911                     	;# 
   253  0912                     	;# 
   254  0913                     	;# 
   255  0914                     	;# 
   256  0915                     	;# 
   257  0916                     	;# 
   258  0918                     	;# 
   259  0919                     	;# 
   260  091A                     	;# 
   261  091B                     	;# 
   262  091C                     	;# 
   263  091D                     	;# 
   264  091E                     	;# 
   265  091F                     	;# 
   266  0E0F                     	;# 
   267  0E10                     	;# 
   268  0E11                     	;# 
   269  0E12                     	;# 
   270  0E13                     	;# 
   271  0E14                     	;# 
   272  0E15                     	;# 
   273  0E18                     	;# 
   274  0E1A                     	;# 
   275  0E1B                     	;# 
   276  0E1C                     	;# 
   277  0E20                     	;# 
   278  0E21                     	;# 
   279  0E22                     	;# 
   280  0E24                     	;# 
   281  0E25                     	;# 
   282  0E28                     	;# 
   283  0E29                     	;# 
   284  0E2A                     	;# 
   285  0E2B                     	;# 
   286  0E90                     	;# 
   287  0E91                     	;# 
   288  0E92                     	;# 
   289  0E94                     	;# 
   290  0E95                     	;# 
   291  0EA0                     	;# 
   292  0EA1                     	;# 
   293  0EA2                     	;# 
   294  0EA3                     	;# 
   295  0EA4                     	;# 
   296  0EA5                     	;# 
   297  0F0F                     	;# 
   298  0F10                     	;# 
   299  0F11                     	;# 
   300  0F12                     	;# 
   301  0F13                     	;# 
   302  0F14                     	;# 
   303  0F15                     	;# 
   304  0F16                     	;# 
   305  0F17                     	;# 
   306  0F18                     	;# 
   307  0F19                     	;# 
   308  0F1A                     	;# 
   309  0F1B                     	;# 
   310  0F1C                     	;# 
   311  0F1D                     	;# 
   312  0F1E                     	;# 
   313  0F1F                     	;# 
   314  0F20                     	;# 
   315  0F21                     	;# 
   316  0F22                     	;# 
   317  0F23                     	;# 
   318  0FE4                     	;# 
   319  0FE5                     	;# 
   320  0FE6                     	;# 
   321  0FE7                     	;# 
   322  0FE8                     	;# 
   323  0FE9                     	;# 
   324  0FEA                     	;# 
   325  0FEB                     	;# 
   326  0FED                     	;# 
   327  0FEE                     	;# 
   328  0FEF                     	;# 
   329  0000                     	;# 
   330  0001                     	;# 
   331  0002                     	;# 
   332  0003                     	;# 
   333  0004                     	;# 
   334  0005                     	;# 
   335  0006                     	;# 
   336  0007                     	;# 
   337  0008                     	;# 
   338  0009                     	;# 
   339  000A                     	;# 
   340  000B                     	;# 
   341  000C                     	;# 
   342  000E                     	;# 
   343  0010                     	;# 
   344  0011                     	;# 
   345  0012                     	;# 
   346  0013                     	;# 
   347  0014                     	;# 
   348  0015                     	;# 
   349  0015                     	;# 
   350  0016                     	;# 
   351  0016                     	;# 
   352  0017                     	;# 
   353  0018                     	;# 
   354  0019                     	;# 
   355  0019                     	;# 
   356  001A                     	;# 
   357  001B                     	;# 
   358  001C                     	;# 
   359  001D                     	;# 
   360  001E                     	;# 
   361  001F                     	;# 
   362  008C                     	;# 
   363  008E                     	;# 
   364  0090                     	;# 
   365  0091                     	;# 
   366  0092                     	;# 
   367  0093                     	;# 
   368  0094                     	;# 
   369  0097                     	;# 
   370  009B                     	;# 
   371  009B                     	;# 
   372  009C                     	;# 
   373  009D                     	;# 
   374  009E                     	;# 
   375  009F                     	;# 
   376  010C                     	;# 
   377  010E                     	;# 
   378  0111                     	;# 
   379  0112                     	;# 
   380  0113                     	;# 
   381  0114                     	;# 
   382  0115                     	;# 
   383  0116                     	;# 
   384  0117                     	;# 
   385  0118                     	;# 
   386  0119                     	;# 
   387  018C                     	;# 
   388  018E                     	;# 
   389  0197                     	;# 
   390  0199                     	;# 
   391  0199                     	;# 
   392  0199                     	;# 
   393  019A                     	;# 
   394  019A                     	;# 
   395  019A                     	;# 
   396  019B                     	;# 
   397  019B                     	;# 
   398  019B                     	;# 
   399  019B                     	;# 
   400  019B                     	;# 
   401  019C                     	;# 
   402  019C                     	;# 
   403  019C                     	;# 
   404  019D                     	;# 
   405  019D                     	;# 
   406  019D                     	;# 
   407  019E                     	;# 
   408  019E                     	;# 
   409  019E                     	;# 
   410  019F                     	;# 
   411  019F                     	;# 
   412  019F                     	;# 
   413  019F                     	;# 
   414  019F                     	;# 
   415  020C                     	;# 
   416  020E                     	;# 
   417  0211                     	;# 
   418  0211                     	;# 
   419  0212                     	;# 
   420  0212                     	;# 
   421  0213                     	;# 
   422  0213                     	;# 
   423  0214                     	;# 
   424  0214                     	;# 
   425  0215                     	;# 
   426  0215                     	;# 
   427  0215                     	;# 
   428  0215                     	;# 
   429  0216                     	;# 
   430  0216                     	;# 
   431  0217                     	;# 
   432  0217                     	;# 
   433  028C                     	;# 
   434  028E                     	;# 
   435  0291                     	;# 
   436  0291                     	;# 
   437  0292                     	;# 
   438  0293                     	;# 
   439  0294                     	;# 
   440  0295                     	;# 
   441  0295                     	;# 
   442  0296                     	;# 
   443  0297                     	;# 
   444  0298                     	;# 
   445  030C                     	;# 
   446  030E                     	;# 
   447  038C                     	;# 
   448  038E                     	;# 
   449  0391                     	;# 
   450  0392                     	;# 
   451  0393                     	;# 
   452  0397                     	;# 
   453  0398                     	;# 
   454  0399                     	;# 
   455  039A                     	;# 
   456  039C                     	;# 
   457  039D                     	;# 
   458  039E                     	;# 
   459  039F                     	;# 
   460  0498                     	;# 
   461  0498                     	;# 
   462  0499                     	;# 
   463  049A                     	;# 
   464  049B                     	;# 
   465  049B                     	;# 
   466  049C                     	;# 
   467  049D                     	;# 
   468  049E                     	;# 
   469  049F                     	;# 
   470  0617                     	;# 
   471  0618                     	;# 
   472  0619                     	;# 
   473  0619                     	;# 
   474  061A                     	;# 
   475  061B                     	;# 
   476  061C                     	;# 
   477  061C                     	;# 
   478  0691                     	;# 
   479  0692                     	;# 
   480  0693                     	;# 
   481  0694                     	;# 
   482  0695                     	;# 
   483  0696                     	;# 
   484  0697                     	;# 
   485  0698                     	;# 
   486  0699                     	;# 
   487  0891                     	;# 
   488  0891                     	;# 
   489  0891                     	;# 
   490  0891                     	;# 
   491  0891                     	;# 
   492  0891                     	;# 
   493  0892                     	;# 
   494  0892                     	;# 
   495  0892                     	;# 
   496  0893                     	;# 
   497  0893                     	;# 
   498  0893                     	;# 
   499  0893                     	;# 
   500  0893                     	;# 
   501  0893                     	;# 
   502  0894                     	;# 
   503  0894                     	;# 
   504  0894                     	;# 
   505  0895                     	;# 
   506  0895                     	;# 
   507  0895                     	;# 
   508  0896                     	;# 
   509  0896                     	;# 
   510  0896                     	;# 
   511  089B                     	;# 
   512  0911                     	;# 
   513  0912                     	;# 
   514  0913                     	;# 
   515  0914                     	;# 
   516  0915                     	;# 
   517  0916                     	;# 
   518  0918                     	;# 
   519  0919                     	;# 
   520  091A                     	;# 
   521  091B                     	;# 
   522  091C                     	;# 
   523  091D                     	;# 
   524  091E                     	;# 
   525  091F                     	;# 
   526  0E0F                     	;# 
   527  0E10                     	;# 
   528  0E11                     	;# 
   529  0E12                     	;# 
   530  0E13                     	;# 
   531  0E14                     	;# 
   532  0E15                     	;# 
   533  0E18                     	;# 
   534  0E1A                     	;# 
   535  0E1B                     	;# 
   536  0E1C                     	;# 
   537  0E20                     	;# 
   538  0E21                     	;# 
   539  0E22                     	;# 
   540  0E24                     	;# 
   541  0E25                     	;# 
   542  0E28                     	;# 
   543  0E29                     	;# 
   544  0E2A                     	;# 
   545  0E2B                     	;# 
   546  0E90                     	;# 
   547  0E91                     	;# 
   548  0E92                     	;# 
   549  0E94                     	;# 
   550  0E95                     	;# 
   551  0EA0                     	;# 
   552  0EA1                     	;# 
   553  0EA2                     	;# 
   554  0EA3                     	;# 
   555  0EA4                     	;# 
   556  0EA5                     	;# 
   557  0F0F                     	;# 
   558  0F10                     	;# 
   559  0F11                     	;# 
   560  0F12                     	;# 
   561  0F13                     	;# 
   562  0F14                     	;# 
   563  0F15                     	;# 
   564  0F16                     	;# 
   565  0F17                     	;# 
   566  0F18                     	;# 
   567  0F19                     	;# 
   568  0F1A                     	;# 
   569  0F1B                     	;# 
   570  0F1C                     	;# 
   571  0F1D                     	;# 
   572  0F1E                     	;# 
   573  0F1F                     	;# 
   574  0F20                     	;# 
   575  0F21                     	;# 
   576  0F22                     	;# 
   577  0F23                     	;# 
   578  0FE4                     	;# 
   579  0FE5                     	;# 
   580  0FE6                     	;# 
   581  0FE7                     	;# 
   582  0FE8                     	;# 
   583  0FE9                     	;# 
   584  0FEA                     	;# 
   585  0FEB                     	;# 
   586  0FED                     	;# 
   587  0FEE                     	;# 
   588  0FEF                     	;# 
   589  0000                     	;# 
   590  0001                     	;# 
   591  0002                     	;# 
   592  0003                     	;# 
   593  0004                     	;# 
   594  0005                     	;# 
   595  0006                     	;# 
   596  0007                     	;# 
   597  0008                     	;# 
   598  0009                     	;# 
   599  000A                     	;# 
   600  000B                     	;# 
   601  000C                     	;# 
   602  000E                     	;# 
   603  0010                     	;# 
   604  0011                     	;# 
   605  0012                     	;# 
   606  0013                     	;# 
   607  0014                     	;# 
   608  0015                     	;# 
   609  0015                     	;# 
   610  0016                     	;# 
   611  0016                     	;# 
   612  0017                     	;# 
   613  0018                     	;# 
   614  0019                     	;# 
   615  0019                     	;# 
   616  001A                     	;# 
   617  001B                     	;# 
   618  001C                     	;# 
   619  001D                     	;# 
   620  001E                     	;# 
   621  001F                     	;# 
   622  008C                     	;# 
   623  008E                     	;# 
   624  0090                     	;# 
   625  0091                     	;# 
   626  0092                     	;# 
   627  0093                     	;# 
   628  0094                     	;# 
   629  0097                     	;# 
   630  009B                     	;# 
   631  009B                     	;# 
   632  009C                     	;# 
   633  009D                     	;# 
   634  009E                     	;# 
   635  009F                     	;# 
   636  010C                     	;# 
   637  010E                     	;# 
   638  0111                     	;# 
   639  0112                     	;# 
   640  0113                     	;# 
   641  0114                     	;# 
   642  0115                     	;# 
   643  0116                     	;# 
   644  0117                     	;# 
   645  0118                     	;# 
   646  0119                     	;# 
   647  018C                     	;# 
   648  018E                     	;# 
   649  0197                     	;# 
   650  0199                     	;# 
   651  0199                     	;# 
   652  0199                     	;# 
   653  019A                     	;# 
   654  019A                     	;# 
   655  019A                     	;# 
   656  019B                     	;# 
   657  019B                     	;# 
   658  019B                     	;# 
   659  019B                     	;# 
   660  019B                     	;# 
   661  019C                     	;# 
   662  019C                     	;# 
   663  019C                     	;# 
   664  019D                     	;# 
   665  019D                     	;# 
   666  019D                     	;# 
   667  019E                     	;# 
   668  019E                     	;# 
   669  019E                     	;# 
   670  019F                     	;# 
   671  019F                     	;# 
   672  019F                     	;# 
   673  019F                     	;# 
   674  019F                     	;# 
   675  020C                     	;# 
   676  020E                     	;# 
   677  0211                     	;# 
   678  0211                     	;# 
   679  0212                     	;# 
   680  0212                     	;# 
   681  0213                     	;# 
   682  0213                     	;# 
   683  0214                     	;# 
   684  0214                     	;# 
   685  0215                     	;# 
   686  0215                     	;# 
   687  0215                     	;# 
   688  0215                     	;# 
   689  0216                     	;# 
   690  0216                     	;# 
   691  0217                     	;# 
   692  0217                     	;# 
   693  028C                     	;# 
   694  028E                     	;# 
   695  0291                     	;# 
   696  0291                     	;# 
   697  0292                     	;# 
   698  0293                     	;# 
   699  0294                     	;# 
   700  0295                     	;# 
   701  0295                     	;# 
   702  0296                     	;# 
   703  0297                     	;# 
   704  0298                     	;# 
   705  030C                     	;# 
   706  030E                     	;# 
   707  038C                     	;# 
   708  038E                     	;# 
   709  0391                     	;# 
   710  0392                     	;# 
   711  0393                     	;# 
   712  0397                     	;# 
   713  0398                     	;# 
   714  0399                     	;# 
   715  039A                     	;# 
   716  039C                     	;# 
   717  039D                     	;# 
   718  039E                     	;# 
   719  039F                     	;# 
   720  0498                     	;# 
   721  0498                     	;# 
   722  0499                     	;# 
   723  049A                     	;# 
   724  049B                     	;# 
   725  049B                     	;# 
   726  049C                     	;# 
   727  049D                     	;# 
   728  049E                     	;# 
   729  049F                     	;# 
   730  0617                     	;# 
   731  0618                     	;# 
   732  0619                     	;# 
   733  0619                     	;# 
   734  061A                     	;# 
   735  061B                     	;# 
   736  061C                     	;# 
   737  061C                     	;# 
   738  0691                     	;# 
   739  0692                     	;# 
   740  0693                     	;# 
   741  0694                     	;# 
   742  0695                     	;# 
   743  0696                     	;# 
   744  0697                     	;# 
   745  0698                     	;# 
   746  0699                     	;# 
   747  0891                     	;# 
   748  0891                     	;# 
   749  0891                     	;# 
   750  0891                     	;# 
   751  0891                     	;# 
   752  0891                     	;# 
   753  0892                     	;# 
   754  0892                     	;# 
   755  0892                     	;# 
   756  0893                     	;# 
   757  0893                     	;# 
   758  0893                     	;# 
   759  0893                     	;# 
   760  0893                     	;# 
   761  0893                     	;# 
   762  0894                     	;# 
   763  0894                     	;# 
   764  0894                     	;# 
   765  0895                     	;# 
   766  0895                     	;# 
   767  0895                     	;# 
   768  0896                     	;# 
   769  0896                     	;# 
   770  0896                     	;# 
   771  089B                     	;# 
   772  0911                     	;# 
   773  0912                     	;# 
   774  0913                     	;# 
   775  0914                     	;# 
   776  0915                     	;# 
   777  0916                     	;# 
   778  0918                     	;# 
   779  0919                     	;# 
   780  091A                     	;# 
   781  091B                     	;# 
   782  091C                     	;# 
   783  091D                     	;# 
   784  091E                     	;# 
   785  091F                     	;# 
   786  0E0F                     	;# 
   787  0E10                     	;# 
   788  0E11                     	;# 
   789  0E12                     	;# 
   790  0E13                     	;# 
   791  0E14                     	;# 
   792  0E15                     	;# 
   793  0E18                     	;# 
   794  0E1A                     	;# 
   795  0E1B                     	;# 
   796  0E1C                     	;# 
   797  0E20                     	;# 
   798  0E21                     	;# 
   799  0E22                     	;# 
   800  0E24                     	;# 
   801  0E25                     	;# 
   802  0E28                     	;# 
   803  0E29                     	;# 
   804  0E2A                     	;# 
   805  0E2B                     	;# 
   806  0E90                     	;# 
   807  0E91                     	;# 
   808  0E92                     	;# 
   809  0E94                     	;# 
   810  0E95                     	;# 
   811  0EA0                     	;# 
   812  0EA1                     	;# 
   813  0EA2                     	;# 
   814  0EA3                     	;# 
   815  0EA4                     	;# 
   816  0EA5                     	;# 
   817  0F0F                     	;# 
   818  0F10                     	;# 
   819  0F11                     	;# 
   820  0F12                     	;# 
   821  0F13                     	;# 
   822  0F14                     	;# 
   823  0F15                     	;# 
   824  0F16                     	;# 
   825  0F17                     	;# 
   826  0F18                     	;# 
   827  0F19                     	;# 
   828  0F1A                     	;# 
   829  0F1B                     	;# 
   830  0F1C                     	;# 
   831  0F1D                     	;# 
   832  0F1E                     	;# 
   833  0F1F                     	;# 
   834  0F20                     	;# 
   835  0F21                     	;# 
   836  0F22                     	;# 
   837  0F23                     	;# 
   838  0FE4                     	;# 
   839  0FE5                     	;# 
   840  0FE6                     	;# 
   841  0FE7                     	;# 
   842  0FE8                     	;# 
   843  0FE9                     	;# 
   844  0FEA                     	;# 
   845  0FEB                     	;# 
   846  0FED                     	;# 
   847  0FEE                     	;# 
   848  0FEF                     	;# 
   849  0000                     	;# 
   850  0001                     	;# 
   851  0002                     	;# 
   852  0003                     	;# 
   853  0004                     	;# 
   854  0005                     	;# 
   855  0006                     	;# 
   856  0007                     	;# 
   857  0008                     	;# 
   858  0009                     	;# 
   859  000A                     	;# 
   860  000B                     	;# 
   861  000C                     	;# 
   862  000E                     	;# 
   863  0010                     	;# 
   864  0011                     	;# 
   865  0012                     	;# 
   866  0013                     	;# 
   867  0014                     	;# 
   868  0015                     	;# 
   869  0015                     	;# 
   870  0016                     	;# 
   871  0016                     	;# 
   872  0017                     	;# 
   873  0018                     	;# 
   874  0019                     	;# 
   875  0019                     	;# 
   876  001A                     	;# 
   877  001B                     	;# 
   878  001C                     	;# 
   879  001D                     	;# 
   880  001E                     	;# 
   881  001F                     	;# 
   882  008C                     	;# 
   883  008E                     	;# 
   884  0090                     	;# 
   885  0091                     	;# 
   886  0092                     	;# 
   887  0093                     	;# 
   888  0094                     	;# 
   889  0097                     	;# 
   890  009B                     	;# 
   891  009B                     	;# 
   892  009C                     	;# 
   893  009D                     	;# 
   894  009E                     	;# 
   895  009F                     	;# 
   896  010C                     	;# 
   897  010E                     	;# 
   898  0111                     	;# 
   899  0112                     	;# 
   900  0113                     	;# 
   901  0114                     	;# 
   902  0115                     	;# 
   903  0116                     	;# 
   904  0117                     	;# 
   905  0118                     	;# 
   906  0119                     	;# 
   907  018C                     	;# 
   908  018E                     	;# 
   909  0197                     	;# 
   910  0199                     	;# 
   911  0199                     	;# 
   912  0199                     	;# 
   913  019A                     	;# 
   914  019A                     	;# 
   915  019A                     	;# 
   916  019B                     	;# 
   917  019B                     	;# 
   918  019B                     	;# 
   919  019B                     	;# 
   920  019B                     	;# 
   921  019C                     	;# 
   922  019C                     	;# 
   923  019C                     	;# 
   924  019D                     	;# 
   925  019D                     	;# 
   926  019D                     	;# 
   927  019E                     	;# 
   928  019E                     	;# 
   929  019E                     	;# 
   930  019F                     	;# 
   931  019F                     	;# 
   932  019F                     	;# 
   933  019F                     	;# 
   934  019F                     	;# 
   935  020C                     	;# 
   936  020E                     	;# 
   937  0211                     	;# 
   938  0211                     	;# 
   939  0212                     	;# 
   940  0212                     	;# 
   941  0213                     	;# 
   942  0213                     	;# 
   943  0214                     	;# 
   944  0214                     	;# 
   945  0215                     	;# 
   946  0215                     	;# 
   947  0215                     	;# 
   948  0215                     	;# 
   949  0216                     	;# 
   950  0216                     	;# 
   951  0217                     	;# 
   952  0217                     	;# 
   953  028C                     	;# 
   954  028E                     	;# 
   955  0291                     	;# 
   956  0291                     	;# 
   957  0292                     	;# 
   958  0293                     	;# 
   959  0294                     	;# 
   960  0295                     	;# 
   961  0295                     	;# 
   962  0296                     	;# 
   963  0297                     	;# 
   964  0298                     	;# 
   965  030C                     	;# 
   966  030E                     	;# 
   967  038C                     	;# 
   968  038E                     	;# 
   969  0391                     	;# 
   970  0392                     	;# 
   971  0393                     	;# 
   972  0397                     	;# 
   973  0398                     	;# 
   974  0399                     	;# 
   975  039A                     	;# 
   976  039C                     	;# 
   977  039D                     	;# 
   978  039E                     	;# 
   979  039F                     	;# 
   980  0498                     	;# 
   981  0498                     	;# 
   982  0499                     	;# 
   983  049A                     	;# 
   984  049B                     	;# 
   985  049B                     	;# 
   986  049C                     	;# 
   987  049D                     	;# 
   988  049E                     	;# 
   989  049F                     	;# 
   990  0617                     	;# 
   991  0618                     	;# 
   992  0619                     	;# 
   993  0619                     	;# 
   994  061A                     	;# 
   995  061B                     	;# 
   996  061C                     	;# 
   997  061C                     	;# 
   998  0691                     	;# 
   999  0692                     	;# 
  1000  0693                     	;# 
  1001  0694                     	;# 
  1002  0695                     	;# 
  1003  0696                     	;# 
  1004  0697                     	;# 
  1005  0698                     	;# 
  1006  0699                     	;# 
  1007  0891                     	;# 
  1008  0891                     	;# 
  1009  0891                     	;# 
  1010  0891                     	;# 
  1011  0891                     	;# 
  1012  0891                     	;# 
  1013  0892                     	;# 
  1014  0892                     	;# 
  1015  0892                     	;# 
  1016  0893                     	;# 
  1017  0893                     	;# 
  1018  0893                     	;# 
  1019  0893                     	;# 
  1020  0893                     	;# 
  1021  0893                     	;# 
  1022  0894                     	;# 
  1023  0894                     	;# 
  1024  0894                     	;# 
  1025  0895                     	;# 
  1026  0895                     	;# 
  1027  0895                     	;# 
  1028  0896                     	;# 
  1029  0896                     	;# 
  1030  0896                     	;# 
  1031  089B                     	;# 
  1032  0911                     	;# 
  1033  0912                     	;# 
  1034  0913                     	;# 
  1035  0914                     	;# 
  1036  0915                     	;# 
  1037  0916                     	;# 
  1038  0918                     	;# 
  1039  0919                     	;# 
  1040  091A                     	;# 
  1041  091B                     	;# 
  1042  091C                     	;# 
  1043  091D                     	;# 
  1044  091E                     	;# 
  1045  091F                     	;# 
  1046  0E0F                     	;# 
  1047  0E10                     	;# 
  1048  0E11                     	;# 
  1049  0E12                     	;# 
  1050  0E13                     	;# 
  1051  0E14                     	;# 
  1052  0E15                     	;# 
  1053  0E18                     	;# 
  1054  0E1A                     	;# 
  1055  0E1B                     	;# 
  1056  0E1C                     	;# 
  1057  0E20                     	;# 
  1058  0E21                     	;# 
  1059  0E22                     	;# 
  1060  0E24                     	;# 
  1061  0E25                     	;# 
  1062  0E28                     	;# 
  1063  0E29                     	;# 
  1064  0E2A                     	;# 
  1065  0E2B                     	;# 
  1066  0E90                     	;# 
  1067  0E91                     	;# 
  1068  0E92                     	;# 
  1069  0E94                     	;# 
  1070  0E95                     	;# 
  1071  0EA0                     	;# 
  1072  0EA1                     	;# 
  1073  0EA2                     	;# 
  1074  0EA3                     	;# 
  1075  0EA4                     	;# 
  1076  0EA5                     	;# 
  1077  0F0F                     	;# 
  1078  0F10                     	;# 
  1079  0F11                     	;# 
  1080  0F12                     	;# 
  1081  0F13                     	;# 
  1082  0F14                     	;# 
  1083  0F15                     	;# 
  1084  0F16                     	;# 
  1085  0F17                     	;# 
  1086  0F18                     	;# 
  1087  0F19                     	;# 
  1088  0F1A                     	;# 
  1089  0F1B                     	;# 
  1090  0F1C                     	;# 
  1091  0F1D                     	;# 
  1092  0F1E                     	;# 
  1093  0F1F                     	;# 
  1094  0F20                     	;# 
  1095  0F21                     	;# 
  1096  0F22                     	;# 
  1097  0F23                     	;# 
  1098  0FE4                     	;# 
  1099  0FE5                     	;# 
  1100  0FE6                     	;# 
  1101  0FE7                     	;# 
  1102  0FE8                     	;# 
  1103  0FE9                     	;# 
  1104  0FEA                     	;# 
  1105  0FEB                     	;# 
  1106  0FED                     	;# 
  1107  0FEE                     	;# 
  1108  0FEF                     	;# 
  1109  0000                     	;# 
  1110  0001                     	;# 
  1111  0002                     	;# 
  1112  0003                     	;# 
  1113  0004                     	;# 
  1114  0005                     	;# 
  1115  0006                     	;# 
  1116  0007                     	;# 
  1117  0008                     	;# 
  1118  0009                     	;# 
  1119  000A                     	;# 
  1120  000B                     	;# 
  1121  000C                     	;# 
  1122  000E                     	;# 
  1123  0010                     	;# 
  1124  0011                     	;# 
  1125  0012                     	;# 
  1126  0013                     	;# 
  1127  0014                     	;# 
  1128  0015                     	;# 
  1129  0015                     	;# 
  1130  0016                     	;# 
  1131  0016                     	;# 
  1132  0017                     	;# 
  1133  0018                     	;# 
  1134  0019                     	;# 
  1135  0019                     	;# 
  1136  001A                     	;# 
  1137  001B                     	;# 
  1138  001C                     	;# 
  1139  001D                     	;# 
  1140  001E                     	;# 
  1141  001F                     	;# 
  1142  008C                     	;# 
  1143  008E                     	;# 
  1144  0090                     	;# 
  1145  0091                     	;# 
  1146  0092                     	;# 
  1147  0093                     	;# 
  1148  0094                     	;# 
  1149  0097                     	;# 
  1150  009B                     	;# 
  1151  009B                     	;# 
  1152  009C                     	;# 
  1153  009D                     	;# 
  1154  009E                     	;# 
  1155  009F                     	;# 
  1156  010C                     	;# 
  1157  010E                     	;# 
  1158  0111                     	;# 
  1159  0112                     	;# 
  1160  0113                     	;# 
  1161  0114                     	;# 
  1162  0115                     	;# 
  1163  0116                     	;# 
  1164  0117                     	;# 
  1165  0118                     	;# 
  1166  0119                     	;# 
  1167  018C                     	;# 
  1168  018E                     	;# 
  1169  0197                     	;# 
  1170  0199                     	;# 
  1171  0199                     	;# 
  1172  0199                     	;# 
  1173  019A                     	;# 
  1174  019A                     	;# 
  1175  019A                     	;# 
  1176  019B                     	;# 
  1177  019B                     	;# 
  1178  019B                     	;# 
  1179  019B                     	;# 
  1180  019B                     	;# 
  1181  019C                     	;# 
  1182  019C                     	;# 
  1183  019C                     	;# 
  1184  019D                     	;# 
  1185  019D                     	;# 
  1186  019D                     	;# 
  1187  019E                     	;# 
  1188  019E                     	;# 
  1189  019E                     	;# 
  1190  019F                     	;# 
  1191  019F                     	;# 
  1192  019F                     	;# 
  1193  019F                     	;# 
  1194  019F                     	;# 
  1195  020C                     	;# 
  1196  020E                     	;# 
  1197  0211                     	;# 
  1198  0211                     	;# 
  1199  0212                     	;# 
  1200  0212                     	;# 
  1201  0213                     	;# 
  1202  0213                     	;# 
  1203  0214                     	;# 
  1204  0214                     	;# 
  1205  0215                     	;# 
  1206  0215                     	;# 
  1207  0215                     	;# 
  1208  0215                     	;# 
  1209  0216                     	;# 
  1210  0216                     	;# 
  1211  0217                     	;# 
  1212  0217                     	;# 
  1213  028C                     	;# 
  1214  028E                     	;# 
  1215  0291                     	;# 
  1216  0291                     	;# 
  1217  0292                     	;# 
  1218  0293                     	;# 
  1219  0294                     	;# 
  1220  0295                     	;# 
  1221  0295                     	;# 
  1222  0296                     	;# 
  1223  0297                     	;# 
  1224  0298                     	;# 
  1225  030C                     	;# 
  1226  030E                     	;# 
  1227  038C                     	;# 
  1228  038E                     	;# 
  1229  0391                     	;# 
  1230  0392                     	;# 
  1231  0393                     	;# 
  1232  0397                     	;# 
  1233  0398                     	;# 
  1234  0399                     	;# 
  1235  039A                     	;# 
  1236  039C                     	;# 
  1237  039D                     	;# 
  1238  039E                     	;# 
  1239  039F                     	;# 
  1240  0498                     	;# 
  1241  0498                     	;# 
  1242  0499                     	;# 
  1243  049A                     	;# 
  1244  049B                     	;# 
  1245  049B                     	;# 
  1246  049C                     	;# 
  1247  049D                     	;# 
  1248  049E                     	;# 
  1249  049F                     	;# 
  1250  0617                     	;# 
  1251  0618                     	;# 
  1252  0619                     	;# 
  1253  0619                     	;# 
  1254  061A                     	;# 
  1255  061B                     	;# 
  1256  061C                     	;# 
  1257  061C                     	;# 
  1258  0691                     	;# 
  1259  0692                     	;# 
  1260  0693                     	;# 
  1261  0694                     	;# 
  1262  0695                     	;# 
  1263  0696                     	;# 
  1264  0697                     	;# 
  1265  0698                     	;# 
  1266  0699                     	;# 
  1267  0891                     	;# 
  1268  0891                     	;# 
  1269  0891                     	;# 
  1270  0891                     	;# 
  1271  0891                     	;# 
  1272  0891                     	;# 
  1273  0892                     	;# 
  1274  0892                     	;# 
  1275  0892                     	;# 
  1276  0893                     	;# 
  1277  0893                     	;# 
  1278  0893                     	;# 
  1279  0893                     	;# 
  1280  0893                     	;# 
  1281  0893                     	;# 
  1282  0894                     	;# 
  1283  0894                     	;# 
  1284  0894                     	;# 
  1285  0895                     	;# 
  1286  0895                     	;# 
  1287  0895                     	;# 
  1288  0896                     	;# 
  1289  0896                     	;# 
  1290  0896                     	;# 
  1291  089B                     	;# 
  1292  0911                     	;# 
  1293  0912                     	;# 
  1294  0913                     	;# 
  1295  0914                     	;# 
  1296  0915                     	;# 
  1297  0916                     	;# 
  1298  0918                     	;# 
  1299  0919                     	;# 
  1300  091A                     	;# 
  1301  091B                     	;# 
  1302  091C                     	;# 
  1303  091D                     	;# 
  1304  091E                     	;# 
  1305  091F                     	;# 
  1306  0E0F                     	;# 
  1307  0E10                     	;# 
  1308  0E11                     	;# 
  1309  0E12                     	;# 
  1310  0E13                     	;# 
  1311  0E14                     	;# 
  1312  0E15                     	;# 
  1313  0E18                     	;# 
  1314  0E1A                     	;# 
  1315  0E1B                     	;# 
  1316  0E1C                     	;# 
  1317  0E20                     	;# 
  1318  0E21                     	;# 
  1319  0E22                     	;# 
  1320  0E24                     	;# 
  1321  0E25                     	;# 
  1322  0E28                     	;# 
  1323  0E29                     	;# 
  1324  0E2A                     	;# 
  1325  0E2B                     	;# 
  1326  0E90                     	;# 
  1327  0E91                     	;# 
  1328  0E92                     	;# 
  1329  0E94                     	;# 
  1330  0E95                     	;# 
  1331  0EA0                     	;# 
  1332  0EA1                     	;# 
  1333  0EA2                     	;# 
  1334  0EA3                     	;# 
  1335  0EA4                     	;# 
  1336  0EA5                     	;# 
  1337  0F0F                     	;# 
  1338  0F10                     	;# 
  1339  0F11                     	;# 
  1340  0F12                     	;# 
  1341  0F13                     	;# 
  1342  0F14                     	;# 
  1343  0F15                     	;# 
  1344  0F16                     	;# 
  1345  0F17                     	;# 
  1346  0F18                     	;# 
  1347  0F19                     	;# 
  1348  0F1A                     	;# 
  1349  0F1B                     	;# 
  1350  0F1C                     	;# 
  1351  0F1D                     	;# 
  1352  0F1E                     	;# 
  1353  0F1F                     	;# 
  1354  0F20                     	;# 
  1355  0F21                     	;# 
  1356  0F22                     	;# 
  1357  0F23                     	;# 
  1358  0FE4                     	;# 
  1359  0FE5                     	;# 
  1360  0FE6                     	;# 
  1361  0FE7                     	;# 
  1362  0FE8                     	;# 
  1363  0FE9                     	;# 
  1364  0FEA                     	;# 
  1365  0FEB                     	;# 
  1366  0FED                     	;# 
  1367  0FEE                     	;# 
  1368  0FEF                     	;# 
  1369  0000                     	;# 
  1370  0001                     	;# 
  1371  0002                     	;# 
  1372  0003                     	;# 
  1373  0004                     	;# 
  1374  0005                     	;# 
  1375  0006                     	;# 
  1376  0007                     	;# 
  1377  0008                     	;# 
  1378  0009                     	;# 
  1379  000A                     	;# 
  1380  000B                     	;# 
  1381  000C                     	;# 
  1382  000E                     	;# 
  1383  0010                     	;# 
  1384  0011                     	;# 
  1385  0012                     	;# 
  1386  0013                     	;# 
  1387  0014                     	;# 
  1388  0015                     	;# 
  1389  0015                     	;# 
  1390  0016                     	;# 
  1391  0016                     	;# 
  1392  0017                     	;# 
  1393  0018                     	;# 
  1394  0019                     	;# 
  1395  0019                     	;# 
  1396  001A                     	;# 
  1397  001B                     	;# 
  1398  001C                     	;# 
  1399  001D                     	;# 
  1400  001E                     	;# 
  1401  001F                     	;# 
  1402  008C                     	;# 
  1403  008E                     	;# 
  1404  0090                     	;# 
  1405  0091                     	;# 
  1406  0092                     	;# 
  1407  0093                     	;# 
  1408  0094                     	;# 
  1409  0097                     	;# 
  1410  009B                     	;# 
  1411  009B                     	;# 
  1412  009C                     	;# 
  1413  009D                     	;# 
  1414  009E                     	;# 
  1415  009F                     	;# 
  1416  010C                     	;# 
  1417  010E                     	;# 
  1418  0111                     	;# 
  1419  0112                     	;# 
  1420  0113                     	;# 
  1421  0114                     	;# 
  1422  0115                     	;# 
  1423  0116                     	;# 
  1424  0117                     	;# 
  1425  0118                     	;# 
  1426  0119                     	;# 
  1427  018C                     	;# 
  1428  018E                     	;# 
  1429  0197                     	;# 
  1430  0199                     	;# 
  1431  0199                     	;# 
  1432  0199                     	;# 
  1433  019A                     	;# 
  1434  019A                     	;# 
  1435  019A                     	;# 
  1436  019B                     	;# 
  1437  019B                     	;# 
  1438  019B                     	;# 
  1439  019B                     	;# 
  1440  019B                     	;# 
  1441  019C                     	;# 
  1442  019C                     	;# 
  1443  019C                     	;# 
  1444  019D                     	;# 
  1445  019D                     	;# 
  1446  019D                     	;# 
  1447  019E                     	;# 
  1448  019E                     	;# 
  1449  019E                     	;# 
  1450  019F                     	;# 
  1451  019F                     	;# 
  1452  019F                     	;# 
  1453  019F                     	;# 
  1454  019F                     	;# 
  1455  020C                     	;# 
  1456  020E                     	;# 
  1457  0211                     	;# 
  1458  0211                     	;# 
  1459  0212                     	;# 
  1460  0212                     	;# 
  1461  0213                     	;# 
  1462  0213                     	;# 
  1463  0214                     	;# 
  1464  0214                     	;# 
  1465  0215                     	;# 
  1466  0215                     	;# 
  1467  0215                     	;# 
  1468  0215                     	;# 
  1469  0216                     	;# 
  1470  0216                     	;# 
  1471  0217                     	;# 
  1472  0217                     	;# 
  1473  028C                     	;# 
  1474  028E                     	;# 
  1475  0291                     	;# 
  1476  0291                     	;# 
  1477  0292                     	;# 
  1478  0293                     	;# 
  1479  0294                     	;# 
  1480  0295                     	;# 
  1481  0295                     	;# 
  1482  0296                     	;# 
  1483  0297                     	;# 
  1484  0298                     	;# 
  1485  030C                     	;# 
  1486  030E                     	;# 
  1487  038C                     	;# 
  1488  038E                     	;# 
  1489  0391                     	;# 
  1490  0392                     	;# 
  1491  0393                     	;# 
  1492  0397                     	;# 
  1493  0398                     	;# 
  1494  0399                     	;# 
  1495  039A                     	;# 
  1496  039C                     	;# 
  1497  039D                     	;# 
  1498  039E                     	;# 
  1499  039F                     	;# 
  1500  0498                     	;# 
  1501  0498                     	;# 
  1502  0499                     	;# 
  1503  049A                     	;# 
  1504  049B                     	;# 
  1505  049B                     	;# 
  1506  049C                     	;# 
  1507  049D                     	;# 
  1508  049E                     	;# 
  1509  049F                     	;# 
  1510  0617                     	;# 
  1511  0618                     	;# 
  1512  0619                     	;# 
  1513  0619                     	;# 
  1514  061A                     	;# 
  1515  061B                     	;# 
  1516  061C                     	;# 
  1517  061C                     	;# 
  1518  0691                     	;# 
  1519  0692                     	;# 
  1520  0693                     	;# 
  1521  0694                     	;# 
  1522  0695                     	;# 
  1523  0696                     	;# 
  1524  0697                     	;# 
  1525  0698                     	;# 
  1526  0699                     	;# 
  1527  0891                     	;# 
  1528  0891                     	;# 
  1529  0891                     	;# 
  1530  0891                     	;# 
  1531  0891                     	;# 
  1532  0891                     	;# 
  1533  0892                     	;# 
  1534  0892                     	;# 
  1535  0892                     	;# 
  1536  0893                     	;# 
  1537  0893                     	;# 
  1538  0893                     	;# 
  1539  0893                     	;# 
  1540  0893                     	;# 
  1541  0893                     	;# 
  1542  0894                     	;# 
  1543  0894                     	;# 
  1544  0894                     	;# 
  1545  0895                     	;# 
  1546  0895                     	;# 
  1547  0895                     	;# 
  1548  0896                     	;# 
  1549  0896                     	;# 
  1550  0896                     	;# 
  1551  089B                     	;# 
  1552  0911                     	;# 
  1553  0912                     	;# 
  1554  0913                     	;# 
  1555  0914                     	;# 
  1556  0915                     	;# 
  1557  0916                     	;# 
  1558  0918                     	;# 
  1559  0919                     	;# 
  1560  091A                     	;# 
  1561  091B                     	;# 
  1562  091C                     	;# 
  1563  091D                     	;# 
  1564  091E                     	;# 
  1565  091F                     	;# 
  1566  0E0F                     	;# 
  1567  0E10                     	;# 
  1568  0E11                     	;# 
  1569  0E12                     	;# 
  1570  0E13                     	;# 
  1571  0E14                     	;# 
  1572  0E15                     	;# 
  1573  0E18                     	;# 
  1574  0E1A                     	;# 
  1575  0E1B                     	;# 
  1576  0E1C                     	;# 
  1577  0E20                     	;# 
  1578  0E21                     	;# 
  1579  0E22                     	;# 
  1580  0E24                     	;# 
  1581  0E25                     	;# 
  1582  0E28                     	;# 
  1583  0E29                     	;# 
  1584  0E2A                     	;# 
  1585  0E2B                     	;# 
  1586  0E90                     	;# 
  1587  0E91                     	;# 
  1588  0E92                     	;# 
  1589  0E94                     	;# 
  1590  0E95                     	;# 
  1591  0EA0                     	;# 
  1592  0EA1                     	;# 
  1593  0EA2                     	;# 
  1594  0EA3                     	;# 
  1595  0EA4                     	;# 
  1596  0EA5                     	;# 
  1597  0F0F                     	;# 
  1598  0F10                     	;# 
  1599  0F11                     	;# 
  1600  0F12                     	;# 
  1601  0F13                     	;# 
  1602  0F14                     	;# 
  1603  0F15                     	;# 
  1604  0F16                     	;# 
  1605  0F17                     	;# 
  1606  0F18                     	;# 
  1607  0F19                     	;# 
  1608  0F1A                     	;# 
  1609  0F1B                     	;# 
  1610  0F1C                     	;# 
  1611  0F1D                     	;# 
  1612  0F1E                     	;# 
  1613  0F1F                     	;# 
  1614  0F20                     	;# 
  1615  0F21                     	;# 
  1616  0F22                     	;# 
  1617  0F23                     	;# 
  1618  0FE4                     	;# 
  1619  0FE5                     	;# 
  1620  0FE6                     	;# 
  1621  0FE7                     	;# 
  1622  0FE8                     	;# 
  1623  0FE9                     	;# 
  1624  0FEA                     	;# 
  1625  0FEB                     	;# 
  1626  0FED                     	;# 
  1627  0FEE                     	;# 
  1628  0FEF                     	;# 
  1629  0000                     	;# 
  1630  0001                     	;# 
  1631  0002                     	;# 
  1632  0003                     	;# 
  1633  0004                     	;# 
  1634  0005                     	;# 
  1635  0006                     	;# 
  1636  0007                     	;# 
  1637  0008                     	;# 
  1638  0009                     	;# 
  1639  000A                     	;# 
  1640  000B                     	;# 
  1641  000C                     	;# 
  1642  000E                     	;# 
  1643  0010                     	;# 
  1644  0011                     	;# 
  1645  0012                     	;# 
  1646  0013                     	;# 
  1647  0014                     	;# 
  1648  0015                     	;# 
  1649  0015                     	;# 
  1650  0016                     	;# 
  1651  0016                     	;# 
  1652  0017                     	;# 
  1653  0018                     	;# 
  1654  0019                     	;# 
  1655  0019                     	;# 
  1656  001A                     	;# 
  1657  001B                     	;# 
  1658  001C                     	;# 
  1659  001D                     	;# 
  1660  001E                     	;# 
  1661  001F                     	;# 
  1662  008C                     	;# 
  1663  008E                     	;# 
  1664  0090                     	;# 
  1665  0091                     	;# 
  1666  0092                     	;# 
  1667  0093                     	;# 
  1668  0094                     	;# 
  1669  0097                     	;# 
  1670  009B                     	;# 
  1671  009B                     	;# 
  1672  009C                     	;# 
  1673  009D                     	;# 
  1674  009E                     	;# 
  1675  009F                     	;# 
  1676  010C                     	;# 
  1677  010E                     	;# 
  1678  0111                     	;# 
  1679  0112                     	;# 
  1680  0113                     	;# 
  1681  0114                     	;# 
  1682  0115                     	;# 
  1683  0116                     	;# 
  1684  0117                     	;# 
  1685  0118                     	;# 
  1686  0119                     	;# 
  1687  018C                     	;# 
  1688  018E                     	;# 
  1689  0197                     	;# 
  1690  0199                     	;# 
  1691  0199                     	;# 
  1692  0199                     	;# 
  1693  019A                     	;# 
  1694  019A                     	;# 
  1695  019A                     	;# 
  1696  019B                     	;# 
  1697  019B                     	;# 
  1698  019B                     	;# 
  1699  019B                     	;# 
  1700  019B                     	;# 
  1701  019C                     	;# 
  1702  019C                     	;# 
  1703  019C                     	;# 
  1704  019D                     	;# 
  1705  019D                     	;# 
  1706  019D                     	;# 
  1707  019E                     	;# 
  1708  019E                     	;# 
  1709  019E                     	;# 
  1710  019F                     	;# 
  1711  019F                     	;# 
  1712  019F                     	;# 
  1713  019F                     	;# 
  1714  019F                     	;# 
  1715  020C                     	;# 
  1716  020E                     	;# 
  1717  0211                     	;# 
  1718  0211                     	;# 
  1719  0212                     	;# 
  1720  0212                     	;# 
  1721  0213                     	;# 
  1722  0213                     	;# 
  1723  0214                     	;# 
  1724  0214                     	;# 
  1725  0215                     	;# 
  1726  0215                     	;# 
  1727  0215                     	;# 
  1728  0215                     	;# 
  1729  0216                     	;# 
  1730  0216                     	;# 
  1731  0217                     	;# 
  1732  0217                     	;# 
  1733  028C                     	;# 
  1734  028E                     	;# 
  1735  0291                     	;# 
  1736  0291                     	;# 
  1737  0292                     	;# 
  1738  0293                     	;# 
  1739  0294                     	;# 
  1740  0295                     	;# 
  1741  0295                     	;# 
  1742  0296                     	;# 
  1743  0297                     	;# 
  1744  0298                     	;# 
  1745  030C                     	;# 
  1746  030E                     	;# 
  1747  038C                     	;# 
  1748  038E                     	;# 
  1749  0391                     	;# 
  1750  0392                     	;# 
  1751  0393                     	;# 
  1752  0397                     	;# 
  1753  0398                     	;# 
  1754  0399                     	;# 
  1755  039A                     	;# 
  1756  039C                     	;# 
  1757  039D                     	;# 
  1758  039E                     	;# 
  1759  039F                     	;# 
  1760  0498                     	;# 
  1761  0498                     	;# 
  1762  0499                     	;# 
  1763  049A                     	;# 
  1764  049B                     	;# 
  1765  049B                     	;# 
  1766  049C                     	;# 
  1767  049D                     	;# 
  1768  049E                     	;# 
  1769  049F                     	;# 
  1770  0617                     	;# 
  1771  0618                     	;# 
  1772  0619                     	;# 
  1773  0619                     	;# 
  1774  061A                     	;# 
  1775  061B                     	;# 
  1776  061C                     	;# 
  1777  061C                     	;# 
  1778  0691                     	;# 
  1779  0692                     	;# 
  1780  0693                     	;# 
  1781  0694                     	;# 
  1782  0695                     	;# 
  1783  0696                     	;# 
  1784  0697                     	;# 
  1785  0698                     	;# 
  1786  0699                     	;# 
  1787  0891                     	;# 
  1788  0891                     	;# 
  1789  0891                     	;# 
  1790  0891                     	;# 
  1791  0891                     	;# 
  1792  0891                     	;# 
  1793  0892                     	;# 
  1794  0892                     	;# 
  1795  0892                     	;# 
  1796  0893                     	;# 
  1797  0893                     	;# 
  1798  0893                     	;# 
  1799  0893                     	;# 
  1800  0893                     	;# 
  1801  0893                     	;# 
  1802  0894                     	;# 
  1803  0894                     	;# 
  1804  0894                     	;# 
  1805  0895                     	;# 
  1806  0895                     	;# 
  1807  0895                     	;# 
  1808  0896                     	;# 
  1809  0896                     	;# 
  1810  0896                     	;# 
  1811  089B                     	;# 
  1812  0911                     	;# 
  1813  0912                     	;# 
  1814  0913                     	;# 
  1815  0914                     	;# 
  1816  0915                     	;# 
  1817  0916                     	;# 
  1818  0918                     	;# 
  1819  0919                     	;# 
  1820  091A                     	;# 
  1821  091B                     	;# 
  1822  091C                     	;# 
  1823  091D                     	;# 
  1824  091E                     	;# 
  1825  091F                     	;# 
  1826  0E0F                     	;# 
  1827  0E10                     	;# 
  1828  0E11                     	;# 
  1829  0E12                     	;# 
  1830  0E13                     	;# 
  1831  0E14                     	;# 
  1832  0E15                     	;# 
  1833  0E18                     	;# 
  1834  0E1A                     	;# 
  1835  0E1B                     	;# 
  1836  0E1C                     	;# 
  1837  0E20                     	;# 
  1838  0E21                     	;# 
  1839  0E22                     	;# 
  1840  0E24                     	;# 
  1841  0E25                     	;# 
  1842  0E28                     	;# 
  1843  0E29                     	;# 
  1844  0E2A                     	;# 
  1845  0E2B                     	;# 
  1846  0E90                     	;# 
  1847  0E91                     	;# 
  1848  0E92                     	;# 
  1849  0E94                     	;# 
  1850  0E95                     	;# 
  1851  0EA0                     	;# 
  1852  0EA1                     	;# 
  1853  0EA2                     	;# 
  1854  0EA3                     	;# 
  1855  0EA4                     	;# 
  1856  0EA5                     	;# 
  1857  0F0F                     	;# 
  1858  0F10                     	;# 
  1859  0F11                     	;# 
  1860  0F12                     	;# 
  1861  0F13                     	;# 
  1862  0F14                     	;# 
  1863  0F15                     	;# 
  1864  0F16                     	;# 
  1865  0F17                     	;# 
  1866  0F18                     	;# 
  1867  0F19                     	;# 
  1868  0F1A                     	;# 
  1869  0F1B                     	;# 
  1870  0F1C                     	;# 
  1871  0F1D                     	;# 
  1872  0F1E                     	;# 
  1873  0F1F                     	;# 
  1874  0F20                     	;# 
  1875  0F21                     	;# 
  1876  0F22                     	;# 
  1877  0F23                     	;# 
  1878  0FE4                     	;# 
  1879  0FE5                     	;# 
  1880  0FE6                     	;# 
  1881  0FE7                     	;# 
  1882  0FE8                     	;# 
  1883  0FE9                     	;# 
  1884  0FEA                     	;# 
  1885  0FEB                     	;# 
  1886  0FED                     	;# 
  1887  0FEE                     	;# 
  1888  0FEF                     	;# 
  1889  0000                     	;# 
  1890  0001                     	;# 
  1891  0002                     	;# 
  1892  0003                     	;# 
  1893  0004                     	;# 
  1894  0005                     	;# 
  1895  0006                     	;# 
  1896  0007                     	;# 
  1897  0008                     	;# 
  1898  0009                     	;# 
  1899  000A                     	;# 
  1900  000B                     	;# 
  1901  000C                     	;# 
  1902  000E                     	;# 
  1903  0010                     	;# 
  1904  0011                     	;# 
  1905  0012                     	;# 
  1906  0013                     	;# 
  1907  0014                     	;# 
  1908  0015                     	;# 
  1909  0015                     	;# 
  1910  0016                     	;# 
  1911  0016                     	;# 
  1912  0017                     	;# 
  1913  0018                     	;# 
  1914  0019                     	;# 
  1915  0019                     	;# 
  1916  001A                     	;# 
  1917  001B                     	;# 
  1918  001C                     	;# 
  1919  001D                     	;# 
  1920  001E                     	;# 
  1921  001F                     	;# 
  1922  008C                     	;# 
  1923  008E                     	;# 
  1924  0090                     	;# 
  1925  0091                     	;# 
  1926  0092                     	;# 
  1927  0093                     	;# 
  1928  0094                     	;# 
  1929  0097                     	;# 
  1930  009B                     	;# 
  1931  009B                     	;# 
  1932  009C                     	;# 
  1933  009D                     	;# 
  1934  009E                     	;# 
  1935  009F                     	;# 
  1936  010C                     	;# 
  1937  010E                     	;# 
  1938  0111                     	;# 
  1939  0112                     	;# 
  1940  0113                     	;# 
  1941  0114                     	;# 
  1942  0115                     	;# 
  1943  0116                     	;# 
  1944  0117                     	;# 
  1945  0118                     	;# 
  1946  0119                     	;# 
  1947  018C                     	;# 
  1948  018E                     	;# 
  1949  0197                     	;# 
  1950  0199                     	;# 
  1951  0199                     	;# 
  1952  0199                     	;# 
  1953  019A                     	;# 
  1954  019A                     	;# 
  1955  019A                     	;# 
  1956  019B                     	;# 
  1957  019B                     	;# 
  1958  019B                     	;# 
  1959  019B                     	;# 
  1960  019B                     	;# 
  1961  019C                     	;# 
  1962  019C                     	;# 
  1963  019C                     	;# 
  1964  019D                     	;# 
  1965  019D                     	;# 
  1966  019D                     	;# 
  1967  019E                     	;# 
  1968  019E                     	;# 
  1969  019E                     	;# 
  1970  019F                     	;# 
  1971  019F                     	;# 
  1972  019F                     	;# 
  1973  019F                     	;# 
  1974  019F                     	;# 
  1975  020C                     	;# 
  1976  020E                     	;# 
  1977  0211                     	;# 
  1978  0211                     	;# 
  1979  0212                     	;# 
  1980  0212                     	;# 
  1981  0213                     	;# 
  1982  0213                     	;# 
  1983  0214                     	;# 
  1984  0214                     	;# 
  1985  0215                     	;# 
  1986  0215                     	;# 
  1987  0215                     	;# 
  1988  0215                     	;# 
  1989  0216                     	;# 
  1990  0216                     	;# 
  1991  0217                     	;# 
  1992  0217                     	;# 
  1993  028C                     	;# 
  1994  028E                     	;# 
  1995  0291                     	;# 
  1996  0291                     	;# 
  1997  0292                     	;# 
  1998  0293                     	;# 
  1999  0294                     	;# 
  2000  0295                     	;# 
  2001  0295                     	;# 
  2002  0296                     	;# 
  2003  0297                     	;# 
  2004  0298                     	;# 
  2005  030C                     	;# 
  2006  030E                     	;# 
  2007  038C                     	;# 
  2008  038E                     	;# 
  2009  0391                     	;# 
  2010  0392                     	;# 
  2011  0393                     	;# 
  2012  0397                     	;# 
  2013  0398                     	;# 
  2014  0399                     	;# 
  2015  039A                     	;# 
  2016  039C                     	;# 
  2017  039D                     	;# 
  2018  039E                     	;# 
  2019  039F                     	;# 
  2020  0498                     	;# 
  2021  0498                     	;# 
  2022  0499                     	;# 
  2023  049A                     	;# 
  2024  049B                     	;# 
  2025  049B                     	;# 
  2026  049C                     	;# 
  2027  049D                     	;# 
  2028  049E                     	;# 
  2029  049F                     	;# 
  2030  0617                     	;# 
  2031  0618                     	;# 
  2032  0619                     	;# 
  2033  0619                     	;# 
  2034  061A                     	;# 
  2035  061B                     	;# 
  2036  061C                     	;# 
  2037  061C                     	;# 
  2038  0691                     	;# 
  2039  0692                     	;# 
  2040  0693                     	;# 
  2041  0694                     	;# 
  2042  0695                     	;# 
  2043  0696                     	;# 
  2044  0697                     	;# 
  2045  0698                     	;# 
  2046  0699                     	;# 
  2047  0891                     	;# 
  2048  0891                     	;# 
  2049  0891                     	;# 
  2050  0891                     	;# 
  2051  0891                     	;# 
  2052  0891                     	;# 
  2053  0892                     	;# 
  2054  0892                     	;# 
  2055  0892                     	;# 
  2056  0893                     	;# 
  2057  0893                     	;# 
  2058  0893                     	;# 
  2059  0893                     	;# 
  2060  0893                     	;# 
  2061  0893                     	;# 
  2062  0894                     	;# 
  2063  0894                     	;# 
  2064  0894                     	;# 
  2065  0895                     	;# 
  2066  0895                     	;# 
  2067  0895                     	;# 
  2068  0896                     	;# 
  2069  0896                     	;# 
  2070  0896                     	;# 
  2071  089B                     	;# 
  2072  0911                     	;# 
  2073  0912                     	;# 
  2074  0913                     	;# 
  2075  0914                     	;# 
  2076  0915                     	;# 
  2077  0916                     	;# 
  2078  0918                     	;# 
  2079  0919                     	;# 
  2080  091A                     	;# 
  2081  091B                     	;# 
  2082  091C                     	;# 
  2083  091D                     	;# 
  2084  091E                     	;# 
  2085  091F                     	;# 
  2086  0E0F                     	;# 
  2087  0E10                     	;# 
  2088  0E11                     	;# 
  2089  0E12                     	;# 
  2090  0E13                     	;# 
  2091  0E14                     	;# 
  2092  0E15                     	;# 
  2093  0E18                     	;# 
  2094  0E1A                     	;# 
  2095  0E1B                     	;# 
  2096  0E1C                     	;# 
  2097  0E20                     	;# 
  2098  0E21                     	;# 
  2099  0E22                     	;# 
  2100  0E24                     	;# 
  2101  0E25                     	;# 
  2102  0E28                     	;# 
  2103  0E29                     	;# 
  2104  0E2A                     	;# 
  2105  0E2B                     	;# 
  2106  0E90                     	;# 
  2107  0E91                     	;# 
  2108  0E92                     	;# 
  2109  0E94                     	;# 
  2110  0E95                     	;# 
  2111  0EA0                     	;# 
  2112  0EA1                     	;# 
  2113  0EA2                     	;# 
  2114  0EA3                     	;# 
  2115  0EA4                     	;# 
  2116  0EA5                     	;# 
  2117  0F0F                     	;# 
  2118  0F10                     	;# 
  2119  0F11                     	;# 
  2120  0F12                     	;# 
  2121  0F13                     	;# 
  2122  0F14                     	;# 
  2123  0F15                     	;# 
  2124  0F16                     	;# 
  2125  0F17                     	;# 
  2126  0F18                     	;# 
  2127  0F19                     	;# 
  2128  0F1A                     	;# 
  2129  0F1B                     	;# 
  2130  0F1C                     	;# 
  2131  0F1D                     	;# 
  2132  0F1E                     	;# 
  2133  0F1F                     	;# 
  2134  0F20                     	;# 
  2135  0F21                     	;# 
  2136  0F22                     	;# 
  2137  0F23                     	;# 
  2138  0FE4                     	;# 
  2139  0FE5                     	;# 
  2140  0FE6                     	;# 
  2141  0FE7                     	;# 
  2142  0FE8                     	;# 
  2143  0FE9                     	;# 
  2144  0FEA                     	;# 
  2145  0FEB                     	;# 
  2146  0FED                     	;# 
  2147  0FEE                     	;# 
  2148  0FEF                     	;# 
  2149  0000                     	;# 
  2150  0001                     	;# 
  2151  0002                     	;# 
  2152  0003                     	;# 
  2153  0004                     	;# 
  2154  0005                     	;# 
  2155  0006                     	;# 
  2156  0007                     	;# 
  2157  0008                     	;# 
  2158  0009                     	;# 
  2159  000A                     	;# 
  2160  000B                     	;# 
  2161  000C                     	;# 
  2162  000E                     	;# 
  2163  0010                     	;# 
  2164  0011                     	;# 
  2165  0012                     	;# 
  2166  0013                     	;# 
  2167  0014                     	;# 
  2168  0015                     	;# 
  2169  0015                     	;# 
  2170  0016                     	;# 
  2171  0016                     	;# 
  2172  0017                     	;# 
  2173  0018                     	;# 
  2174  0019                     	;# 
  2175  0019                     	;# 
  2176  001A                     	;# 
  2177  001B                     	;# 
  2178  001C                     	;# 
  2179  001D                     	;# 
  2180  001E                     	;# 
  2181  001F                     	;# 
  2182  008C                     	;# 
  2183  008E                     	;# 
  2184  0090                     	;# 
  2185  0091                     	;# 
  2186  0092                     	;# 
  2187  0093                     	;# 
  2188  0094                     	;# 
  2189  0097                     	;# 
  2190  009B                     	;# 
  2191  009B                     	;# 
  2192  009C                     	;# 
  2193  009D                     	;# 
  2194  009E                     	;# 
  2195  009F                     	;# 
  2196  010C                     	;# 
  2197  010E                     	;# 
  2198  0111                     	;# 
  2199  0112                     	;# 
  2200  0113                     	;# 
  2201  0114                     	;# 
  2202  0115                     	;# 
  2203  0116                     	;# 
  2204  0117                     	;# 
  2205  0118                     	;# 
  2206  0119                     	;# 
  2207  018C                     	;# 
  2208  018E                     	;# 
  2209  0197                     	;# 
  2210  0199                     	;# 
  2211  0199                     	;# 
  2212  0199                     	;# 
  2213  019A                     	;# 
  2214  019A                     	;# 
  2215  019A                     	;# 
  2216  019B                     	;# 
  2217  019B                     	;# 
  2218  019B                     	;# 
  2219  019B                     	;# 
  2220  019B                     	;# 
  2221  019C                     	;# 
  2222  019C                     	;# 
  2223  019C                     	;# 
  2224  019D                     	;# 
  2225  019D                     	;# 
  2226  019D                     	;# 
  2227  019E                     	;# 
  2228  019E                     	;# 
  2229  019E                     	;# 
  2230  019F                     	;# 
  2231  019F                     	;# 
  2232  019F                     	;# 
  2233  019F                     	;# 
  2234  019F                     	;# 
  2235  020C                     	;# 
  2236  020E                     	;# 
  2237  0211                     	;# 
  2238  0211                     	;# 
  2239  0212                     	;# 
  2240  0212                     	;# 
  2241  0213                     	;# 
  2242  0213                     	;# 
  2243  0214                     	;# 
  2244  0214                     	;# 
  2245  0215                     	;# 
  2246  0215                     	;# 
  2247  0215                     	;# 
  2248  0215                     	;# 
  2249  0216                     	;# 
  2250  0216                     	;# 
  2251  0217                     	;# 
  2252  0217                     	;# 
  2253  028C                     	;# 
  2254  028E                     	;# 
  2255  0291                     	;# 
  2256  0291                     	;# 
  2257  0292                     	;# 
  2258  0293                     	;# 
  2259  0294                     	;# 
  2260  0295                     	;# 
  2261  0295                     	;# 
  2262  0296                     	;# 
  2263  0297                     	;# 
  2264  0298                     	;# 
  2265  030C                     	;# 
  2266  030E                     	;# 
  2267  038C                     	;# 
  2268  038E                     	;# 
  2269  0391                     	;# 
  2270  0392                     	;# 
  2271  0393                     	;# 
  2272  0397                     	;# 
  2273  0398                     	;# 
  2274  0399                     	;# 
  2275  039A                     	;# 
  2276  039C                     	;# 
  2277  039D                     	;# 
  2278  039E                     	;# 
  2279  039F                     	;# 
  2280  0498                     	;# 
  2281  0498                     	;# 
  2282  0499                     	;# 
  2283  049A                     	;# 
  2284  049B                     	;# 
  2285  049B                     	;# 
  2286  049C                     	;# 
  2287  049D                     	;# 
  2288  049E                     	;# 
  2289  049F                     	;# 
  2290  0617                     	;# 
  2291  0618                     	;# 
  2292  0619                     	;# 
  2293  0619                     	;# 
  2294  061A                     	;# 
  2295  061B                     	;# 
  2296  061C                     	;# 
  2297  061C                     	;# 
  2298  0691                     	;# 
  2299  0692                     	;# 
  2300  0693                     	;# 
  2301  0694                     	;# 
  2302  0695                     	;# 
  2303  0696                     	;# 
  2304  0697                     	;# 
  2305  0698                     	;# 
  2306  0699                     	;# 
  2307  0891                     	;# 
  2308  0891                     	;# 
  2309  0891                     	;# 
  2310  0891                     	;# 
  2311  0891                     	;# 
  2312  0891                     	;# 
  2313  0892                     	;# 
  2314  0892                     	;# 
  2315  0892                     	;# 
  2316  0893                     	;# 
  2317  0893                     	;# 
  2318  0893                     	;# 
  2319  0893                     	;# 
  2320  0893                     	;# 
  2321  0893                     	;# 
  2322  0894                     	;# 
  2323  0894                     	;# 
  2324  0894                     	;# 
  2325  0895                     	;# 
  2326  0895                     	;# 
  2327  0895                     	;# 
  2328  0896                     	;# 
  2329  0896                     	;# 
  2330  0896                     	;# 
  2331  089B                     	;# 
  2332  0911                     	;# 
  2333  0912                     	;# 
  2334  0913                     	;# 
  2335  0914                     	;# 
  2336  0915                     	;# 
  2337  0916                     	;# 
  2338  0918                     	;# 
  2339  0919                     	;# 
  2340  091A                     	;# 
  2341  091B                     	;# 
  2342  091C                     	;# 
  2343  091D                     	;# 
  2344  091E                     	;# 
  2345  091F                     	;# 
  2346  0E0F                     	;# 
  2347  0E10                     	;# 
  2348  0E11                     	;# 
  2349  0E12                     	;# 
  2350  0E13                     	;# 
  2351  0E14                     	;# 
  2352  0E15                     	;# 
  2353  0E18                     	;# 
  2354  0E1A                     	;# 
  2355  0E1B                     	;# 
  2356  0E1C                     	;# 
  2357  0E20                     	;# 
  2358  0E21                     	;# 
  2359  0E22                     	;# 
  2360  0E24                     	;# 
  2361  0E25                     	;# 
  2362  0E28                     	;# 
  2363  0E29                     	;# 
  2364  0E2A                     	;# 
  2365  0E2B                     	;# 
  2366  0E90                     	;# 
  2367  0E91                     	;# 
  2368  0E92                     	;# 
  2369  0E94                     	;# 
  2370  0E95                     	;# 
  2371  0EA0                     	;# 
  2372  0EA1                     	;# 
  2373  0EA2                     	;# 
  2374  0EA3                     	;# 
  2375  0EA4                     	;# 
  2376  0EA5                     	;# 
  2377  0F0F                     	;# 
  2378  0F10                     	;# 
  2379  0F11                     	;# 
  2380  0F12                     	;# 
  2381  0F13                     	;# 
  2382  0F14                     	;# 
  2383  0F15                     	;# 
  2384  0F16                     	;# 
  2385  0F17                     	;# 
  2386  0F18                     	;# 
  2387  0F19                     	;# 
  2388  0F1A                     	;# 
  2389  0F1B                     	;# 
  2390  0F1C                     	;# 
  2391  0F1D                     	;# 
  2392  0F1E                     	;# 
  2393  0F1F                     	;# 
  2394  0F20                     	;# 
  2395  0F21                     	;# 
  2396  0F22                     	;# 
  2397  0F23                     	;# 
  2398  0FE4                     	;# 
  2399  0FE5                     	;# 
  2400  0FE6                     	;# 
  2401  0FE7                     	;# 
  2402  0FE8                     	;# 
  2403  0FE9                     	;# 
  2404  0FEA                     	;# 
  2405  0FEB                     	;# 
  2406  0FED                     	;# 
  2407  0FEE                     	;# 
  2408  0FEF                     	;# 
  2409  0000                     	;# 
  2410  0001                     	;# 
  2411  0002                     	;# 
  2412  0003                     	;# 
  2413  0004                     	;# 
  2414  0005                     	;# 
  2415  0006                     	;# 
  2416  0007                     	;# 
  2417  0008                     	;# 
  2418  0009                     	;# 
  2419  000A                     	;# 
  2420  000B                     	;# 
  2421  000C                     	;# 
  2422  000E                     	;# 
  2423  0010                     	;# 
  2424  0011                     	;# 
  2425  0012                     	;# 
  2426  0013                     	;# 
  2427  0014                     	;# 
  2428  0015                     	;# 
  2429  0015                     	;# 
  2430  0016                     	;# 
  2431  0016                     	;# 
  2432  0017                     	;# 
  2433  0018                     	;# 
  2434  0019                     	;# 
  2435  0019                     	;# 
  2436  001A                     	;# 
  2437  001B                     	;# 
  2438  001C                     	;# 
  2439  001D                     	;# 
  2440  001E                     	;# 
  2441  001F                     	;# 
  2442  008C                     	;# 
  2443  008E                     	;# 
  2444  0090                     	;# 
  2445  0091                     	;# 
  2446  0092                     	;# 
  2447  0093                     	;# 
  2448  0094                     	;# 
  2449  0097                     	;# 
  2450  009B                     	;# 
  2451  009B                     	;# 
  2452  009C                     	;# 
  2453  009D                     	;# 
  2454  009E                     	;# 
  2455  009F                     	;# 
  2456  010C                     	;# 
  2457  010E                     	;# 
  2458  0111                     	;# 
  2459  0112                     	;# 
  2460  0113                     	;# 
  2461  0114                     	;# 
  2462  0115                     	;# 
  2463  0116                     	;# 
  2464  0117                     	;# 
  2465  0118                     	;# 
  2466  0119                     	;# 
  2467  018C                     	;# 
  2468  018E                     	;# 
  2469  0197                     	;# 
  2470  0199                     	;# 
  2471  0199                     	;# 
  2472  0199                     	;# 
  2473  019A                     	;# 
  2474  019A                     	;# 
  2475  019A                     	;# 
  2476  019B                     	;# 
  2477  019B                     	;# 
  2478  019B                     	;# 
  2479  019B                     	;# 
  2480  019B                     	;# 
  2481  019C                     	;# 
  2482  019C                     	;# 
  2483  019C                     	;# 
  2484  019D                     	;# 
  2485  019D                     	;# 
  2486  019D                     	;# 
  2487  019E                     	;# 
  2488  019E                     	;# 
  2489  019E                     	;# 
  2490  019F                     	;# 
  2491  019F                     	;# 
  2492  019F                     	;# 
  2493  019F                     	;# 
  2494  019F                     	;# 
  2495  020C                     	;# 
  2496  020E                     	;# 
  2497  0211                     	;# 
  2498  0211                     	;# 
  2499  0212                     	;# 
  2500  0212                     	;# 
  2501  0213                     	;# 
  2502  0213                     	;# 
  2503  0214                     	;# 
  2504  0214                     	;# 
  2505  0215                     	;# 
  2506  0215                     	;# 
  2507  0215                     	;# 
  2508  0215                     	;# 
  2509  0216                     	;# 
  2510  0216                     	;# 
  2511  0217                     	;# 
  2512  0217                     	;# 
  2513  028C                     	;# 
  2514  028E                     	;# 
  2515  0291                     	;# 
  2516  0291                     	;# 
  2517  0292                     	;# 
  2518  0293                     	;# 
  2519  0294                     	;# 
  2520  0295                     	;# 
  2521  0295                     	;# 
  2522  0296                     	;# 
  2523  0297                     	;# 
  2524  0298                     	;# 
  2525  030C                     	;# 
  2526  030E                     	;# 
  2527  038C                     	;# 
  2528  038E                     	;# 
  2529  0391                     	;# 
  2530  0392                     	;# 
  2531  0393                     	;# 
  2532  0397                     	;# 
  2533  0398                     	;# 
  2534  0399                     	;# 
  2535  039A                     	;# 
  2536  039C                     	;# 
  2537  039D                     	;# 
  2538  039E                     	;# 
  2539  039F                     	;# 
  2540  0498                     	;# 
  2541  0498                     	;# 
  2542  0499                     	;# 
  2543  049A                     	;# 
  2544  049B                     	;# 
  2545  049B                     	;# 
  2546  049C                     	;# 
  2547  049D                     	;# 
  2548  049E                     	;# 
  2549  049F                     	;# 
  2550  0617                     	;# 
  2551  0618                     	;# 
  2552  0619                     	;# 
  2553  0619                     	;# 
  2554  061A                     	;# 
  2555  061B                     	;# 
  2556  061C                     	;# 
  2557  061C                     	;# 
  2558  0691                     	;# 
  2559  0692                     	;# 
  2560  0693                     	;# 
  2561  0694                     	;# 
  2562  0695                     	;# 
  2563  0696                     	;# 
  2564  0697                     	;# 
  2565  0698                     	;# 
  2566  0699                     	;# 
  2567  0891                     	;# 
  2568  0891                     	;# 
  2569  0891                     	;# 
  2570  0891                     	;# 
  2571  0891                     	;# 
  2572  0891                     	;# 
  2573  0892                     	;# 
  2574  0892                     	;# 
  2575  0892                     	;# 
  2576  0893                     	;# 
  2577  0893                     	;# 
  2578  0893                     	;# 
  2579  0893                     	;# 
  2580  0893                     	;# 
  2581  0893                     	;# 
  2582  0894                     	;# 
  2583  0894                     	;# 
  2584  0894                     	;# 
  2585  0895                     	;# 
  2586  0895                     	;# 
  2587  0895                     	;# 
  2588  0896                     	;# 
  2589  0896                     	;# 
  2590  0896                     	;# 
  2591  089B                     	;# 
  2592  0911                     	;# 
  2593  0912                     	;# 
  2594  0913                     	;# 
  2595  0914                     	;# 
  2596  0915                     	;# 
  2597  0916                     	;# 
  2598  0918                     	;# 
  2599  0919                     	;# 
  2600  091A                     	;# 
  2601  091B                     	;# 
  2602  091C                     	;# 
  2603  091D                     	;# 
  2604  091E                     	;# 
  2605  091F                     	;# 
  2606  0E0F                     	;# 
  2607  0E10                     	;# 
  2608  0E11                     	;# 
  2609  0E12                     	;# 
  2610  0E13                     	;# 
  2611  0E14                     	;# 
  2612  0E15                     	;# 
  2613  0E18                     	;# 
  2614  0E1A                     	;# 
  2615  0E1B                     	;# 
  2616  0E1C                     	;# 
  2617  0E20                     	;# 
  2618  0E21                     	;# 
  2619  0E22                     	;# 
  2620  0E24                     	;# 
  2621  0E25                     	;# 
  2622  0E28                     	;# 
  2623  0E29                     	;# 
  2624  0E2A                     	;# 
  2625  0E2B                     	;# 
  2626  0E90                     	;# 
  2627  0E91                     	;# 
  2628  0E92                     	;# 
  2629  0E94                     	;# 
  2630  0E95                     	;# 
  2631  0EA0                     	;# 
  2632  0EA1                     	;# 
  2633  0EA2                     	;# 
  2634  0EA3                     	;# 
  2635  0EA4                     	;# 
  2636  0EA5                     	;# 
  2637  0F0F                     	;# 
  2638  0F10                     	;# 
  2639  0F11                     	;# 
  2640  0F12                     	;# 
  2641  0F13                     	;# 
  2642  0F14                     	;# 
  2643  0F15                     	;# 
  2644  0F16                     	;# 
  2645  0F17                     	;# 
  2646  0F18                     	;# 
  2647  0F19                     	;# 
  2648  0F1A                     	;# 
  2649  0F1B                     	;# 
  2650  0F1C                     	;# 
  2651  0F1D                     	;# 
  2652  0F1E                     	;# 
  2653  0F1F                     	;# 
  2654  0F20                     	;# 
  2655  0F21                     	;# 
  2656  0F22                     	;# 
  2657  0F23                     	;# 
  2658  0FE4                     	;# 
  2659  0FE5                     	;# 
  2660  0FE6                     	;# 
  2661  0FE7                     	;# 
  2662  0FE8                     	;# 
  2663  0FE9                     	;# 
  2664  0FEA                     	;# 
  2665  0FEB                     	;# 
  2666  0FED                     	;# 
  2667  0FEE                     	;# 
  2668  0FEF                     	;# 
  2669                           
  2670                           	psect	nvBANK0
  2671  0027                     __pnvBANK0:	
  2672  0027                     _TMR0_InterruptHandler:	
  2673  0027                     	ds	2
  2674  000C                     _PORTAbits	set	12
  2675  000E                     _PORTCbits	set	14
  2676  000B                     _INTCONbits	set	11
  2677  001C                     _T1GCONbits	set	28
  2678  001B                     _T1CONbits	set	27
  2679  0019                     _TMR1L	set	25
  2680  001A                     _TMR1H	set	26
  2681  001C                     _T1GCON	set	28
  2682  001B                     _T1CON	set	27
  2683  0017                     _T0CON0bits	set	23
  2684  0010                     _PIR0bits	set	16
  2685  0015                     _TMR0L	set	21
  2686  0016                     _TMR0H	set	22
  2687  0018                     _T0CON1	set	24
  2688  0017                     _T0CON0	set	23
  2689  0011                     _PIR1bits	set	17
  2690  005F                     _GIE	set	95
  2691  0090                     _PIE0bits	set	144
  2692  0097                     _WDTCON	set	151
  2693  008E                     _TRISC	set	142
  2694  008C                     _TRISA	set	140
  2695  010E                     _LATC	set	270
  2696  010C                     _LATA	set	268
  2697  019A                     _TX1REG	set	410
  2698  0199                     _RC1REG	set	409
  2699  019D                     _RC1STAbits	set	413
  2700  019C                     _SP1BRGH	set	412
  2701  019B                     _SP1BRGL	set	411
  2702  019E                     _TX1STA	set	414
  2703  019D                     _RC1STA	set	413
  2704  019F                     _BAUD1CON	set	415
  2705  018C                     _ANSELA	set	396
  2706  018E                     _ANSELC	set	398
  2707  020E                     _WPUC	set	526
  2708  020C                     _WPUA	set	524
  2709  028E                     _ODCONC	set	654
  2710  028C                     _ODCONA	set	652
  2711  0896                     _NVMCON2	set	2198
  2712  0893                     _NVMDATL	set	2195
  2713  0894                     _NVMDATH	set	2196
  2714  0895                     _NVMCON1bits	set	2197
  2715  0892                     _NVMADRH	set	2194
  2716  0891                     _NVMADRL	set	2193
  2717  091E                     _OSCTUNE	set	2334
  2718  091F                     _OSCFRQ	set	2335
  2719  091D                     _OSCEN	set	2333
  2720  091B                     _OSCCON3	set	2331
  2721  0919                     _OSCCON1	set	2329
  2722  48E0                     _PLLR	set	18656
  2723  0E2B                     _CLCIN3PPSbits	set	3627
  2724  0E2A                     _CLCIN2PPSbits	set	3626
  2725  0E28                     _CLCIN0PPSbits	set	3624
  2726  0E13                     _T1GPPSbits	set	3603
  2727  0E24                     _RXPPSbits	set	3620
  2728  0E29                     _CLCIN1PPSbits	set	3625
  2729  0E0F                     _PPSLOCKbits	set	3599
  2730  0E0F                     _PPSLOCK	set	3599
  2731  0EA5                     _RC5PPSbits	set	3749
  2732  0EA1                     _RC1PPSbits	set	3745
  2733  0F1A                     _CLC2CONbits	set	3866
  2734  0F1A                     _CLC2CON	set	3866
  2735  0F23                     _CLC2GLS3	set	3875
  2736  0F22                     _CLC2GLS2	set	3874
  2737  0F21                     _CLC2GLS1	set	3873
  2738  0F20                     _CLC2GLS0	set	3872
  2739  0F1F                     _CLC2SEL3	set	3871
  2740  0F1E                     _CLC2SEL2	set	3870
  2741  0F1D                     _CLC2SEL1	set	3869
  2742  0F1C                     _CLC2SEL0	set	3868
  2743  0F1B                     _CLC2POL	set	3867
  2744  0F10                     _CLC1CONbits	set	3856
  2745  0F10                     _CLC1CON	set	3856
  2746  0F19                     _CLC1GLS3	set	3865
  2747  0F18                     _CLC1GLS2	set	3864
  2748  0F17                     _CLC1GLS1	set	3863
  2749  0F16                     _CLC1GLS0	set	3862
  2750  0F15                     _CLC1SEL3	set	3861
  2751  0F14                     _CLC1SEL2	set	3860
  2752  0F13                     _CLC1SEL1	set	3859
  2753  0F12                     _CLC1SEL0	set	3858
  2754  0F11                     _CLC1POL	set	3857
  2755                           
  2756                           ; #config settings
  2757  0000                     
  2758                           	psect	cinit
  2759  0016                     start_initialization:	
  2760  0016                     __initialization:	
  2761                           
  2762                           ; Clear objects allocated to COMMON
  2763  0016  01F7               	clrf	__pbssCOMMON& (0+127)
  2764  0017  01F8               	clrf	(__pbssCOMMON+1)& (0+127)
  2765  0018  01F9               	clrf	(__pbssCOMMON+2)& (0+127)
  2766  0019  01FA               	clrf	(__pbssCOMMON+3)& (0+127)
  2767  001A  01FB               	clrf	(__pbssCOMMON+4)& (0+127)
  2768                           
  2769                           ; Clear objects allocated to BANK0
  2770  001B  0020               	movlb	0	; select bank0
  2771  001C  01A0               	clrf	__pbssBANK0& (0+127)
  2772  001D  01A1               	clrf	(__pbssBANK0+1)& (0+127)
  2773  001E  01A2               	clrf	(__pbssBANK0+2)& (0+127)
  2774  001F  01A3               	clrf	(__pbssBANK0+3)& (0+127)
  2775  0020  01A4               	clrf	(__pbssBANK0+4)& (0+127)
  2776  0021  01A5               	clrf	(__pbssBANK0+5)& (0+127)
  2777  0022  01A6               	clrf	(__pbssBANK0+6)& (0+127)
  2778  0023                     end_of_initialization:	
  2779                           ;End of C runtime variable initialization code
  2780                           
  2781  0023                     __end_of__initialization:	
  2782  0023  107E               	bcf	int$flags,0	;clear compiler interrupt flag (level 1)
  2783  0024  0020               	movlb	0
  2784  0025  2989               	ljmp	_main	;jump to C main() function
  2785                           
  2786                           	psect	bssCOMMON
  2787  0077                     __pbssCOMMON:	
  2788  0077                     _timeout:	
  2789  0077                     	ds	1
  2790  0078                     _arg:	
  2791  0078                     	ds	1
  2792  0079                     _cmd:	
  2793  0079                     	ds	1
  2794  007A                     _id:	
  2795  007A                     	ds	1
  2796  007B                     _shift:	
  2797  007B                     	ds	1
  2798                           
  2799                           	psect	bssBANK0
  2800  0020                     __pbssBANK0:	
  2801  0020                     _eepromAdr:	
  2802  0020                     	ds	2
  2803  0022                     _TMR1_InterruptHandler:	
  2804  0022                     	ds	2
  2805  0024                     _timer1ReloadVal:	
  2806  0024                     	ds	2
  2807  0026                     _shiftCounter:	
  2808  0026                     	ds	1
  2809                           
  2810                           	psect	cstackCOMMON
  2811  0070                     __pcstackCOMMON:	
  2812  0070                     ?_OSCILLATOR_Initialize:	
  2813  0070                     ?_WDT_Initialize:	
  2814                           ; 1 bytes @ 0x0
  2815                           
  2816  0070                     ?_CLC2_Initialize:	
  2817                           ; 1 bytes @ 0x0
  2818                           
  2819  0070                     ?_TMR1_Initialize:	
  2820                           ; 1 bytes @ 0x0
  2821                           
  2822  0070                     ?_TMR0_Initialize:	
  2823                           ; 1 bytes @ 0x0
  2824                           
  2825  0070                     ?_EUSART_Initialize:	
  2826                           ; 1 bytes @ 0x0
  2827                           
  2828  0070                     ?_TMR0_DefaultInterruptHandler:	
  2829                           ; 1 bytes @ 0x0
  2830                           
  2831  0070                     ??_TMR0_DefaultInterruptHandler:	
  2832                           ; 1 bytes @ 0x0
  2833                           
  2834  0070                     ?_TMR0_StartTimer:	
  2835                           ; 1 bytes @ 0x0
  2836                           
  2837  0070                     ?_TMR1_StartTimer:	
  2838                           ; 1 bytes @ 0x0
  2839                           
  2840  0070                     ?_PIN_MANAGER_Initialize:	
  2841                           ; 1 bytes @ 0x0
  2842                           
  2843  0070                     ?_CLC1_Initialize:	
  2844                           ; 1 bytes @ 0x0
  2845                           
  2846  0070                     ?_SYSTEM_Initialize:	
  2847                           ; 1 bytes @ 0x0
  2848                           
  2849  0070                     ?_TMR0_ISR:	
  2850                           ; 1 bytes @ 0x0
  2851                           
  2852  0070                     ?_INTERRUPT_InterruptManager:	
  2853                           ; 1 bytes @ 0x0
  2854                           
  2855  0070                     ?_readByte:	
  2856                           ; 1 bytes @ 0x0
  2857                           
  2858  0070                     ?_writeByte:	
  2859                           ; 1 bytes @ 0x0
  2860                           
  2861  0070                     ?_waitStart:	
  2862                           ; 1 bytes @ 0x0
  2863                           
  2864  0070                     ?_readCommand:	
  2865                           ; 1 bytes @ 0x0
  2866                           
  2867  0070                     ?_tmr0irq:	
  2868                           ; 1 bytes @ 0x0
  2869                           
  2870  0070                     ??_tmr0irq:	
  2871                           ; 1 bytes @ 0x0
  2872                           
  2873  0070                     ?_main:	
  2874                           ; 1 bytes @ 0x0
  2875                           
  2876                           
  2877                           ; 2 bytes @ 0x0
  2878  0070                     	ds	1
  2879  0071                     ??_TMR0_ISR:	
  2880  0071                     ??_INTERRUPT_InterruptManager:	
  2881                           ; 1 bytes @ 0x1
  2882                           
  2883                           
  2884                           ; 1 bytes @ 0x1
  2885  0071                     	ds	1
  2886  0072                     ??_OSCILLATOR_Initialize:	
  2887  0072                     ??_WDT_Initialize:	
  2888                           ; 1 bytes @ 0x2
  2889                           
  2890  0072                     ??_CLC2_Initialize:	
  2891                           ; 1 bytes @ 0x2
  2892                           
  2893  0072                     ??_TMR1_Initialize:	
  2894                           ; 1 bytes @ 0x2
  2895                           
  2896  0072                     ??_EUSART_Initialize:	
  2897                           ; 1 bytes @ 0x2
  2898                           
  2899  0072                     ?_TMR0_SetInterruptHandler:	
  2900                           ; 1 bytes @ 0x2
  2901                           
  2902  0072                     ??_TMR0_StartTimer:	
  2903                           ; 1 bytes @ 0x2
  2904                           
  2905  0072                     ??_TMR1_StartTimer:	
  2906                           ; 1 bytes @ 0x2
  2907                           
  2908  0072                     ??_PIN_MANAGER_Initialize:	
  2909                           ; 1 bytes @ 0x2
  2910                           
  2911  0072                     ??_CLC1_Initialize:	
  2912                           ; 1 bytes @ 0x2
  2913                           
  2914  0072                     ?_DATAEE_WriteByte:	
  2915                           ; 1 bytes @ 0x2
  2916                           
  2917  0072                     ?_DATAEE_ReadByte:	
  2918                           ; 1 bytes @ 0x2
  2919                           
  2920  0072                     ??_readByte:	
  2921                           ; 1 bytes @ 0x2
  2922                           
  2923  0072                     ??_writeByte:	
  2924                           ; 1 bytes @ 0x2
  2925                           
  2926  0072                     ??_waitStart:	
  2927                           ; 1 bytes @ 0x2
  2928                           
  2929  0072                     PIN_MANAGER_Initialize@state:	
  2930                           ; 1 bytes @ 0x2
  2931                           
  2932  0072                     TMR0_SetInterruptHandler@InterruptHandler:	
  2933                           ; 1 bytes @ 0x2
  2934                           
  2935  0072                     DATAEE_WriteByte@bAdd:	
  2936                           ; 2 bytes @ 0x2
  2937                           
  2938  0072                     DATAEE_ReadByte@bAdd:	
  2939                           ; 2 bytes @ 0x2
  2940                           
  2941                           
  2942                           ; 2 bytes @ 0x2
  2943  0072                     	ds	1
  2944  0073                     writeByte@b:	
  2945                           
  2946                           ; 1 bytes @ 0x3
  2947  0073                     	ds	1
  2948  0074                     ??_TMR0_Initialize:	
  2949  0074                     ??_TMR0_SetInterruptHandler:	
  2950                           ; 1 bytes @ 0x4
  2951                           
  2952  0074                     ??_SYSTEM_Initialize:	
  2953                           ; 1 bytes @ 0x4
  2954                           
  2955  0074                     ??_DATAEE_ReadByte:	
  2956                           ; 1 bytes @ 0x4
  2957                           
  2958  0074                     DATAEE_WriteByte@bData:	
  2959                           ; 1 bytes @ 0x4
  2960                           
  2961                           
  2962                           ; 1 bytes @ 0x4
  2963  0074                     	ds	1
  2964  0075                     ??_DATAEE_WriteByte:	
  2965  0075                     DATAEE_WriteByte@GIEBitValue:	
  2966                           ; 1 bytes @ 0x5
  2967                           
  2968                           
  2969                           ; 1 bytes @ 0x5
  2970  0075                     	ds	1
  2971  0076                     ??_readCommand:	
  2972                           
  2973                           ; 1 bytes @ 0x6
  2974  0076                     	ds	1
  2975                           
  2976                           	psect	cstackBANK0
  2977  0029                     __pcstackBANK0:	
  2978  0029                     ??_main:	
  2979                           
  2980                           ; 1 bytes @ 0x0
  2981  0029                     	ds	2
  2982                           
  2983                           	psect	maintext
  2984  0189                     __pmaintext:	
  2985 ;;
  2986 ;;Main: autosize = 0, tempsize = 2, incstack = 0, save=0
  2987 ;;
  2988 ;; *************** function _main *****************
  2989 ;; Defined at:
  2990 ;;		line 295 in file "main.c"
  2991 ;; Parameters:    Size  Location     Type
  2992 ;;		None
  2993 ;; Auto vars:     Size  Location     Type
  2994 ;;		None
  2995 ;; Return value:  Size  Location     Type
  2996 ;;                  2  417[None  ] int 
  2997 ;; Registers used:
  2998 ;;		wreg, fsr0l, fsr0h, status,2, status,0, pclath, cstack
  2999 ;; Tracked objects:
  3000 ;;		On entry : B1F/0
  3001 ;;		On exit  : 0/0
  3002 ;;		Unchanged: 0/0
  3003 ;; Data sizes:     COMMON   BANK0   BANK1   BANK2
  3004 ;;      Params:         0       0       0       0
  3005 ;;      Locals:         0       0       0       0
  3006 ;;      Temps:          0       2       0       0
  3007 ;;      Totals:         0       2       0       0
  3008 ;;Total ram usage:        2 bytes
  3009 ;; Hardware stack levels required when called:    6
  3010 ;; This function calls:
  3011 ;;		_SYSTEM_Initialize
  3012 ;;		_readCommand
  3013 ;; This function is called by:
  3014 ;;		Startup code after reset
  3015 ;; This function uses a non-reentrant model
  3016 ;;
  3017                           
  3018                           
  3019                           ;psect for function _main
  3020  0189                     _main:	
  3021                           
  3022                           ;main.c: 297: TMR0_InterruptHandler = tmr0irq;
  3023                           
  3024                           ;incstack = 0
  3025                           ; Regs used in _main: [wreg-fsr0h+status,2+status,0+pclath+cstack]
  3026  0189  3027               	movlw	low _tmr0irq
  3027  018A  0020               	movlb	0	; select bank0
  3028  018B  00A7               	movwf	_TMR0_InterruptHandler
  3029  018C  3002               	movlw	high _tmr0irq
  3030  018D  00A8               	movwf	_TMR0_InterruptHandler+1
  3031                           
  3032                           ;main.c: 298: SYSTEM_Initialize();
  3033  018E  2218               	fcall	_SYSTEM_Initialize
  3034                           
  3035                           ;main.c: 299: INTCONbits.GIE = 1;
  3036  018F  178B               	bsf	11,7	;volatile
  3037                           
  3038                           ;main.c: 300: INTCONbits.PEIE = 1;
  3039  0190  170B               	bsf	11,6	;volatile
  3040                           
  3041                           ;main.c: 301: _delay((unsigned long)((100)*(32000000/4000.0)));
  3042  0191  3005               	movlw	5
  3043  0192  0020               	movlb	0	; select bank0
  3044  0193  00AA               	movwf	??_main+1
  3045  0194  300F               	movlw	15
  3046  0195  00A9               	movwf	??_main
  3047  0196  30F1               	movlw	241
  3048  0197                     u437:	
  3049  0197  0B89               	decfsz	9,f
  3050  0198  2997               	goto	u437
  3051  0199  0BA9               	decfsz	??_main,f
  3052  019A  2997               	goto	u437
  3053  019B  0BAA               	decfsz	??_main+1,f
  3054  019C  2997               	goto	u437
  3055  019D                     l1581:	
  3056                           ;main.c: 302: while (1) {
  3057                           
  3058                           
  3059                           ;main.c: 303: readCommand();
  3060  019D  2026               	fcall	_readCommand
  3061  019E  299D               	goto	l1581
  3062  019F                     __end_of_main:	
  3063                           ;main.c: 304: }
  3064                           ;main.c: 306: return 0;
  3065                           ;	Return value of _main is never used
  3066                           
  3067                           
  3068                           	psect	text1
  3069  0026                     __ptext1:	
  3070 ;; *************** function _readCommand *****************
  3071 ;; Defined at:
  3072 ;;		line 221 in file "main.c"
  3073 ;; Parameters:    Size  Location     Type
  3074 ;;		None
  3075 ;; Auto vars:     Size  Location     Type
  3076 ;;		None
  3077 ;; Return value:  Size  Location     Type
  3078 ;;                  1    wreg      void 
  3079 ;; Registers used:
  3080 ;;		wreg, fsr0l, fsr0h, status,2, status,0, pclath, cstack
  3081 ;; Tracked objects:
  3082 ;;		On entry : 0/0
  3083 ;;		On exit  : 0/0
  3084 ;;		Unchanged: 0/0
  3085 ;; Data sizes:     COMMON   BANK0   BANK1   BANK2
  3086 ;;      Params:         0       0       0       0
  3087 ;;      Locals:         0       0       0       0
  3088 ;;      Temps:          1       0       0       0
  3089 ;;      Totals:         1       0       0       0
  3090 ;;Total ram usage:        1 bytes
  3091 ;; Hardware stack levels used:    1
  3092 ;; Hardware stack levels required when called:    4
  3093 ;; This function calls:
  3094 ;;		_DATAEE_ReadByte
  3095 ;;		_DATAEE_WriteByte
  3096 ;;		_readByte
  3097 ;;		_waitStart
  3098 ;;		_writeByte
  3099 ;; This function is called by:
  3100 ;;		_main
  3101 ;; This function uses a non-reentrant model
  3102 ;;
  3103                           
  3104                           
  3105                           ;psect for function _readCommand
  3106  0026                     _readCommand:	
  3107                           
  3108                           ;main.c: 223: waitStart();
  3109                           
  3110                           ;incstack = 0
  3111                           ; Regs used in _readCommand: [wreg-fsr0h+status,2+status,0+pclath+cstack]
  3112  0026  220E               	fcall	_waitStart
  3113                           
  3114                           ;main.c: 224: id = readByte();
  3115  0027  2142               	fcall	_readByte
  3116  0028  00F6               	movwf	??_readCommand
  3117  0029  0876               	movf	??_readCommand,w
  3118  002A  00FA               	movwf	_id	;volatile
  3119                           
  3120                           ;main.c: 225: if (timeout) return;
  3121  002B  0877               	movf	_timeout,w	;volatile
  3122  002C  1D03               	btfss	3,2
  3123  002D  0008               	return
  3124                           
  3125                           ;main.c: 226: cmd = readByte();
  3126  002E  2142               	fcall	_readByte
  3127  002F  00F6               	movwf	??_readCommand
  3128  0030  0876               	movf	??_readCommand,w
  3129  0031  00F9               	movwf	_cmd	;volatile
  3130                           
  3131                           ;main.c: 227: if (timeout) return;
  3132  0032  0877               	movf	_timeout,w	;volatile
  3133  0033  1D03               	btfss	3,2
  3134  0034  0008               	return
  3135                           
  3136                           ;main.c: 228: arg = readByte();
  3137  0035  2142               	fcall	_readByte
  3138  0036  00F6               	movwf	??_readCommand
  3139  0037  0876               	movf	??_readCommand,w
  3140  0038  00F8               	movwf	_arg	;volatile
  3141                           
  3142                           ;main.c: 229: if (timeout) return;
  3143  0039  0877               	movf	_timeout,w	;volatile
  3144  003A  1D03               	btfss	3,2
  3145  003B  0008               	return
  3146                           
  3147                           ;main.c: 230: if (id =='V') {
  3148  003C  3056               	movlw	86
  3149  003D  067A               	xorwf	_id,w	;volatile
  3150  003E  1D03               	btfss	3,2
  3151  003F  0008               	return
  3152  0040  2896               	goto	l1547
  3153  0041                     l1511:	
  3154                           ;main.c: 232: case 1:
  3155                           
  3156                           ;main.c: 231: switch (cmd) {
  3157                           
  3158                           
  3159                           ;main.c: 233: writeByte(4);
  3160  0041  3004               	movlw	4
  3161  0042  20AB               	fcall	_writeByte
  3162                           
  3163                           ;main.c: 234: break;
  3164  0043  0008               	return
  3165  0044                     l1513:	
  3166                           ;main.c: 235: case 2:
  3167                           
  3168                           
  3169                           ;main.c: 236: eepromAdr = 0xf000 + arg;
  3170  0044  0878               	movf	_arg,w	;volatile
  3171  0045  3E00               	addlw	0
  3172  0046  0020               	movlb	0	; select bank0
  3173  0047  00A0               	movwf	_eepromAdr	;volatile
  3174  0048  30F0               	movlw	240
  3175  0049  1803               	skipnc
  3176  004A  30F1               	movlw	241
  3177  004B  00A1               	movwf	_eepromAdr+1	;volatile
  3178                           
  3179                           ;main.c: 237: writeByte(arg);
  3180  004C  0878               	movf	_arg,w	;volatile
  3181  004D  20AB               	fcall	_writeByte
  3182                           
  3183                           ;main.c: 238: break;
  3184  004E  0008               	return
  3185  004F                     l1517:	
  3186                           ;main.c: 239: case 3:
  3187                           
  3188                           
  3189                           ;main.c: 240: DATAEE_WriteByte(eepromAdr, arg);
  3190  004F  0020               	movlb	0	; select bank0
  3191  0050  0821               	movf	_eepromAdr+1,w	;volatile
  3192  0051  00F3               	movwf	DATAEE_WriteByte@bAdd+1
  3193  0052  0820               	movf	_eepromAdr,w	;volatile
  3194  0053  00F2               	movwf	DATAEE_WriteByte@bAdd
  3195  0054  0878               	movf	_arg,w	;volatile
  3196  0055  00F6               	movwf	??_readCommand
  3197  0056  0876               	movf	??_readCommand,w
  3198  0057  00F4               	movwf	DATAEE_WriteByte@bData
  3199  0058  216D               	fcall	_DATAEE_WriteByte
  3200                           
  3201                           ;main.c: 241: writeByte(DATAEE_ReadByte(eepromAdr));
  3202  0059  0020               	movlb	0	; select bank0
  3203  005A  0821               	movf	_eepromAdr+1,w	;volatile
  3204  005B  00F3               	movwf	DATAEE_ReadByte@bAdd+1
  3205  005C  0820               	movf	_eepromAdr,w	;volatile
  3206  005D  00F2               	movwf	DATAEE_ReadByte@bAdd
  3207  005E  21E0               	fcall	_DATAEE_ReadByte
  3208  005F  20AB               	fcall	_writeByte
  3209                           
  3210                           ;main.c: 242: break;
  3211  0060  0008               	return
  3212  0061                     l1519:	
  3213                           ;main.c: 243: case 4:
  3214                           
  3215                           
  3216                           ;main.c: 244: writeByte(DATAEE_ReadByte(0xf000 + arg));
  3217  0061  0878               	movf	_arg,w	;volatile
  3218  0062  3E00               	addlw	0
  3219  0063  00F2               	movwf	DATAEE_ReadByte@bAdd
  3220  0064  30F0               	movlw	240
  3221  0065  1803               	skipnc
  3222  0066  30F1               	movlw	241
  3223  0067  00F3               	movwf	DATAEE_ReadByte@bAdd+1
  3224  0068  21E0               	fcall	_DATAEE_ReadByte
  3225  0069  20AB               	fcall	_writeByte
  3226                           
  3227                           ;main.c: 245: break;
  3228  006A  0008               	return
  3229  006B                     l398:	
  3230                           ;main.c: 246: case 5:
  3231                           
  3232                           
  3233                           ;main.c: 247: if (arg & 1) {
  3234  006B  1C78               	btfss	_arg,0	;volatile
  3235  006C  2870               	goto	l399
  3236                           
  3237                           ;main.c: 248: PORTCbits.RC0 = 1;
  3238  006D  0020               	movlb	0	; select bank0
  3239  006E  140E               	bsf	14,0	;volatile
  3240                           
  3241                           ;main.c: 249: } else {
  3242  006F  2872               	goto	l400
  3243  0070                     l399:	
  3244                           
  3245                           ;main.c: 250: PORTCbits.RC0 = 0;
  3246  0070  0020               	movlb	0	; select bank0
  3247  0071  100E               	bcf	14,0	;volatile
  3248  0072                     l400:	
  3249                           
  3250                           ;main.c: 251: }
  3251                           ;main.c: 252: if (arg & 2) {
  3252  0072  1CF8               	btfss	_arg,1	;volatile
  3253  0073  2876               	goto	l401
  3254                           
  3255                           ;main.c: 253: PORTAbits.RA2 = 1;
  3256  0074  150C               	bsf	12,2	;volatile
  3257                           
  3258                           ;main.c: 254: } else {
  3259  0075  2877               	goto	l402
  3260  0076                     l401:	
  3261                           
  3262                           ;main.c: 255: PORTAbits.RA2 = 0;
  3263  0076  110C               	bcf	12,2	;volatile
  3264  0077                     l402:	
  3265                           
  3266                           ;main.c: 256: }
  3267                           ;main.c: 257: if (arg & 4) {
  3268  0077  1D78               	btfss	_arg,2	;volatile
  3269  0078  287B               	goto	l403
  3270                           
  3271                           ;main.c: 258: PORTCbits.RC1 = 1;
  3272  0079  148E               	bsf	14,1	;volatile
  3273                           
  3274                           ;main.c: 259: } else {
  3275  007A  287C               	goto	l404
  3276  007B                     l403:	
  3277                           
  3278                           ;main.c: 260: PORTCbits.RC1 = 0;
  3279  007B  108E               	bcf	14,1	;volatile
  3280  007C                     l404:	
  3281                           
  3282                           ;main.c: 261: }
  3283                           ;main.c: 262: if (arg & 8) {
  3284  007C  1DF8               	btfss	_arg,3	;volatile
  3285  007D  2880               	goto	l405
  3286                           
  3287                           ;main.c: 263: PORTAbits.RA1 = 1;
  3288  007E  148C               	bsf	12,1	;volatile
  3289                           
  3290                           ;main.c: 264: } else {
  3291  007F  2881               	goto	l1529
  3292  0080                     l405:	
  3293                           
  3294                           ;main.c: 265: PORTAbits.RA1 = 0;
  3295  0080  108C               	bcf	12,1	;volatile
  3296  0081                     l1529:	
  3297                           
  3298                           ;main.c: 266: }
  3299                           ;main.c: 267: writeByte(arg);
  3300  0081  0878               	movf	_arg,w	;volatile
  3301  0082  20AB               	fcall	_writeByte
  3302                           
  3303                           ;main.c: 268: break;
  3304  0083  0008               	return
  3305  0084                     l1531:	
  3306                           ;main.c: 269: case 6:
  3307                           
  3308                           
  3309                           ;main.c: 270: if (arg) {
  3310  0084  0878               	movf	_arg,w	;volatile
  3311  0085  1903               	btfsc	3,2
  3312  0086  288C               	goto	l1537
  3313                           
  3314                           ;main.c: 272: CLC2POL = 0x00;
  3315  0087  003E               	movlb	30	; select bank30
  3316  0088  019B               	clrf	27	;volatile
  3317                           
  3318                           ;main.c: 274: CLC2GLS1 = 0x08;
  3319  0089  3008               	movlw	8
  3320  008A  00A1               	movwf	33	;volatile
  3321                           
  3322                           ;main.c: 275: } else {
  3323  008B  2890               	goto	l1541
  3324  008C                     l1537:	
  3325                           
  3326                           ;main.c: 277: CLC2POL = 0x02;
  3327  008C  3002               	movlw	2
  3328  008D  003E               	movlb	30	; select bank30
  3329  008E  009B               	movwf	27	;volatile
  3330                           
  3331                           ;main.c: 279: CLC2GLS1 = 0x00;
  3332  008F  01A1               	clrf	33	;volatile
  3333  0090                     l1541:	
  3334                           
  3335                           ;main.c: 280: }
  3336                           ;main.c: 281: writeByte(arg);
  3337  0090  0878               	movf	_arg,w	;volatile
  3338  0091  20AB               	fcall	_writeByte
  3339                           
  3340                           ;main.c: 282: break;
  3341  0092  0008               	return
  3342  0093                     l1543:	
  3343                           ;main.c: 283: default:
  3344                           
  3345                           
  3346                           ;main.c: 284: writeByte(0);
  3347  0093  3000               	movlw	0
  3348  0094  20AB               	fcall	_writeByte
  3349                           
  3350                           ;main.c: 286: }
  3351                           
  3352                           ;main.c: 285: break;
  3353  0095  0008               	return
  3354  0096                     l1547:	
  3355  0096  0879               	movf	_cmd,w	;volatile
  3356                           
  3357                           ; Switch size 1, requested type "space"
  3358                           ; Number of cases is 6, Range of values is 1 to 6
  3359                           ; switch strategies available:
  3360                           ; Name         Instructions Cycles
  3361                           ; simple_byte           19    10 (average)
  3362                           ; direct_byte           21     9 (fixed)
  3363                           ; jumptable            263     9 (fixed)
  3364                           ;	Chosen strategy is simple_byte
  3365  0097  3A01               	xorlw	1	; case 1
  3366  0098  1903               	skipnz
  3367  0099  2841               	goto	l1511
  3368  009A  3A03               	xorlw	3	; case 2
  3369  009B  1903               	skipnz
  3370  009C  2844               	goto	l1513
  3371  009D  3A01               	xorlw	1	; case 3
  3372  009E  1903               	skipnz
  3373  009F  284F               	goto	l1517
  3374  00A0  3A07               	xorlw	7	; case 4
  3375  00A1  1903               	skipnz
  3376  00A2  2861               	goto	l1519
  3377  00A3  3A01               	xorlw	1	; case 5
  3378  00A4  1903               	skipnz
  3379  00A5  286B               	goto	l398
  3380  00A6  3A03               	xorlw	3	; case 6
  3381  00A7  1903               	skipnz
  3382  00A8  2884               	goto	l1531
  3383  00A9  2893               	goto	l1543
  3384  00AA  0008               	return
  3385  00AB                     __end_of_readCommand:	
  3386                           
  3387                           	psect	text2
  3388  00AB                     __ptext2:	
  3389 ;; *************** function _writeByte *****************
  3390 ;; Defined at:
  3391 ;;		line 87 in file "main.c"
  3392 ;; Parameters:    Size  Location     Type
  3393 ;;  b               1    wreg     unsigned char 
  3394 ;; Auto vars:     Size  Location     Type
  3395 ;;  b               1    3[COMMON] unsigned char 
  3396 ;; Return value:  Size  Location     Type
  3397 ;;                  1    wreg      void 
  3398 ;; Registers used:
  3399 ;;		wreg
  3400 ;; Tracked objects:
  3401 ;;		On entry : 0/0
  3402 ;;		On exit  : 0/0
  3403 ;;		Unchanged: 0/0
  3404 ;; Data sizes:     COMMON   BANK0   BANK1   BANK2
  3405 ;;      Params:         0       0       0       0
  3406 ;;      Locals:         1       0       0       0
  3407 ;;      Temps:          1       0       0       0
  3408 ;;      Totals:         2       0       0       0
  3409 ;;Total ram usage:        2 bytes
  3410 ;; Hardware stack levels used:    1
  3411 ;; Hardware stack levels required when called:    3
  3412 ;; This function calls:
  3413 ;;		Nothing
  3414 ;; This function is called by:
  3415 ;;		_readCommand
  3416 ;; This function uses a non-reentrant model
  3417 ;;
  3418                           
  3419                           
  3420                           ;psect for function _writeByte
  3421  00AB                     _writeByte:	
  3422                           
  3423                           ;incstack = 0
  3424                           ; Regs used in _writeByte: [wreg]
  3425                           ;writeByte@b stored from wreg
  3426  00AB  00F3               	movwf	writeByte@b
  3427                           
  3428                           ;main.c: 89: shiftCounter = 8;
  3429  00AC  3008               	movlw	8
  3430  00AD  00F2               	movwf	??_writeByte
  3431  00AE  0872               	movf	??_writeByte,w
  3432  00AF  0020               	movlb	0	; select bank0
  3433  00B0  00A6               	movwf	_shiftCounter	;volatile
  3434                           
  3435                           ;main.c: 90: shift = b;
  3436  00B1  0873               	movf	writeByte@b,w
  3437  00B2  00F2               	movwf	??_writeByte
  3438  00B3  0872               	movf	??_writeByte,w
  3439  00B4  00FB               	movwf	_shift	;volatile
  3440                           
  3441                           ; STATUS bits ;# 
  3442  0000                     	;# 
  3443  0002                     	;# 
  3444                           
  3445                           ; select bank for PORTC (bank 0) ;# 
  3446  00B5  0020               	banksel	14	;# 
  3447  00B6                     wait1:	
  3448                           ; wait for PB6 high ;# 
  3449                           
  3450                           
  3451                           ;# 
  3452  00B6  1D8E               	btfss	14,3	;# 
  3453  00B7  28B6               	goto	wait1	;# 
  3454                           
  3455                           ; wait 201 us ;# 
  3456  00B8  3000               	movlw	0	;# 
  3457  00B9  0095               	movwf	21	;# 
  3458  00BA                     wait201:	
  3459                           
  3460                           ;# 
  3461  00BA  0815               	movf	21,w	;# 
  3462  00BB  3CC9               	sublw	201	;# 
  3463  00BC  1803               	btfsc	3,0	;# 
  3464  00BD  28BA               	goto	wait201	;# 
  3465                           
  3466                           ; wait 202 us ;# 
  3467  00BE  3000               	movlw	0	;# 
  3468  00BF  0095               	movwf	21	;# 
  3469  00C0                     wait202:	
  3470                           
  3471                           ;# 
  3472  00C0  0815               	movf	21,w	;# 
  3473  00C1  3CCA               	sublw	202	;# 
  3474  00C2  1803               	btfsc	3,0	;# 
  3475  00C3  28C0               	goto	wait202	;# 
  3476                           
  3477                           ; set PB6 low ;# 
  3478  00C4  118E               	bcf	14,3	;# 
  3479  00C5  0021               	banksel	142	;# 
  3480  00C6  118E               	bcf	14,3	;# 
  3481  00C7  0020               	banksel	14	;# 
  3482                           
  3483                           ; wait 200 us ;# 
  3484  00C8  3000               	movlw	0	;# 
  3485  00C9  0095               	movwf	21	;# 
  3486  00CA                     wait200:	
  3487                           
  3488                           ;# 
  3489  00CA  0815               	movf	21,w	;# 
  3490  00CB  3CC8               	sublw	200	;# 
  3491  00CC  1803               	btfsc	3,0	;# 
  3492  00CD  28CA               	goto	wait200	;# 
  3493  00CE                     start_write:	
  3494                           
  3495                           ;# 
  3496  00CE  158E               	bsf	14,3	;# 
  3497  00CF                     bits:	
  3498  00CF  0020               	banksel	_shift	;# 
  3499  00D0  1FFB               	btfss	_shift,7	;# 
  3500  00D1  28E1               	goto	bit0	;# 
  3501                           
  3502                           ; send 1 bit: 80 us 1, 120 us pause ;# 
  3503  00D2  0020               	banksel	14	;# 
  3504  00D3  3000               	movlw	0	;# 
  3505  00D4  0095               	movwf	21	;# 
  3506  00D5                     wait160:	
  3507                           
  3508                           ;# 
  3509  00D5  0815               	movf	21,w	;# 
  3510  00D6  3CA0               	sublw	160	;# 
  3511  00D7  1803               	btfsc	3,0	;# 
  3512  00D8  28D5               	goto	wait160	;# 
  3513  00D9  118E               	bcf	14,3	;# 
  3514  00DA  3000               	movlw	0	;# 
  3515  00DB  0095               	movwf	21	;# 
  3516  00DC                     wait140:	
  3517                           
  3518                           ;# 
  3519  00DC  0815               	movf	21,w	;# 
  3520  00DD  3C8C               	sublw	140	;# 
  3521  00DE  1803               	btfsc	3,0	;# 
  3522  00DF  28DC               	goto	wait140	;# 
  3523  00E0  28EF               	goto	write_end	;# 
  3524  00E1                     bit0:	
  3525                           ; send 0 bit: 80 us 1, 220 us pause ;# 
  3526                           
  3527                           
  3528                           ;# 
  3529  00E1  0020               	banksel	14	;# 
  3530  00E2  3000               	movlw	0	;# 
  3531  00E3  0095               	movwf	21	;# 
  3532  00E4                     wait80:	
  3533                           
  3534                           ;# 
  3535  00E4  0815               	movf	21,w	;# 
  3536  00E5  3C50               	sublw	80	;# 
  3537  00E6  1803               	btfsc	3,0	;# 
  3538  00E7  28E4               	goto	wait80	;# 
  3539  00E8  118E               	bcf	14,3	;# 
  3540  00E9  3000               	movlw	0	;# 
  3541  00EA  0095               	movwf	21	;# 
  3542  00EB                     wait220:	
  3543                           
  3544                           ;# 
  3545  00EB  0815               	movf	21,w	;# 
  3546  00EC  3CDC               	sublw	220	;# 
  3547  00ED  1803               	btfsc	3,0	;# 
  3548  00EE  28EB               	goto	wait220	;# 
  3549  00EF                     write_end:	
  3550                           
  3551                           ;# 
  3552  00EF  0020               	banksel	_shift	;# 
  3553  00F0  35FB               	lslf	_shift& (0+127),f	;# 
  3554                           
  3555                           ; shift all bits ;# 
  3556  00F1  0020               	banksel	_shiftCounter	;# 
  3557  00F2  0BA6               	decfsz	_shiftCounter& (0+127),f	;# 
  3558  00F3  28CE               	goto	start_write	;# 
  3559                           
  3560                           ; set PB6 back to input ;# 
  3561  00F4  0021               	banksel	142	;# 
  3562  00F5  158E               	bsf	14,3	;# 
  3563  00F6  0008               	return
  3564  00F7                     __end_of_writeByte:	
  3565                           
  3566                           	psect	text3
  3567  020E                     __ptext3:	
  3568 ;; *************** function _waitStart *****************
  3569 ;; Defined at:
  3570 ;;		line 197 in file "main.c"
  3571 ;; Parameters:    Size  Location     Type
  3572 ;;		None
  3573 ;; Auto vars:     Size  Location     Type
  3574 ;;		None
  3575 ;; Return value:  Size  Location     Type
  3576 ;;                  1    wreg      void 
  3577 ;; Registers used:
  3578 ;;		None
  3579 ;; Tracked objects:
  3580 ;;		On entry : 0/0
  3581 ;;		On exit  : 0/0
  3582 ;;		Unchanged: 0/0
  3583 ;; Data sizes:     COMMON   BANK0   BANK1   BANK2
  3584 ;;      Params:         0       0       0       0
  3585 ;;      Locals:         0       0       0       0
  3586 ;;      Temps:          0       0       0       0
  3587 ;;      Totals:         0       0       0       0
  3588 ;;Total ram usage:        0 bytes
  3589 ;; Hardware stack levels used:    1
  3590 ;; Hardware stack levels required when called:    3
  3591 ;; This function calls:
  3592 ;;		Nothing
  3593 ;; This function is called by:
  3594 ;;		_readCommand
  3595 ;; This function uses a non-reentrant model
  3596 ;;
  3597                           
  3598                           
  3599                           ;psect for function _waitStart
  3600  020E                     _waitStart:	
  3601                           
  3602                           ; STATUS bits ;# 
  3603                           
  3604                           ;incstack = 0
  3605                           ; Regs used in _waitStart: []
  3606  0000                     	;# 
  3607  0002                     	;# 
  3608                           
  3609                           ; select bank for PORTC (bank 0) ;# 
  3610  020E  0020               	banksel	14	;# 
  3611  020F                     winit_wait:	
  3612                           ; wait for at least 5 us low on PB6 ;# 
  3613                           
  3614                           
  3615                           ;# 
  3616  020F  3000               	movlw	0	;# 
  3617  0210  0095               	movwf	21	;# 
  3618  0211                     wait:	
  3619                           
  3620                           ;# 
  3621  0211  198E               	btfsc	14,3	;# 
  3622  0212  2A0F               	goto	winit_wait	;# 
  3623  0213  0815               	movf	21,w	;# 
  3624  0214  3C05               	sublw	5	;# 
  3625  0215  1803               	btfsc	3,0	;# 
  3626  0216  2A11               	goto	wait	;# 
  3627  0217  0008               	return
  3628  0218                     __end_of_waitStart:	
  3629                           
  3630                           	psect	text4
  3631  0142                     __ptext4:	
  3632 ;; *************** function _readByte *****************
  3633 ;; Defined at:
  3634 ;;		line 26 in file "main.c"
  3635 ;; Parameters:    Size  Location     Type
  3636 ;;		None
  3637 ;; Auto vars:     Size  Location     Type
  3638 ;;		None
  3639 ;; Return value:  Size  Location     Type
  3640 ;;                  1    wreg      unsigned char 
  3641 ;; Registers used:
  3642 ;;		wreg, status,2
  3643 ;; Tracked objects:
  3644 ;;		On entry : 0/0
  3645 ;;		On exit  : 0/0
  3646 ;;		Unchanged: 0/0
  3647 ;; Data sizes:     COMMON   BANK0   BANK1   BANK2
  3648 ;;      Params:         0       0       0       0
  3649 ;;      Locals:         0       0       0       0
  3650 ;;      Temps:          1       0       0       0
  3651 ;;      Totals:         1       0       0       0
  3652 ;;Total ram usage:        1 bytes
  3653 ;; Hardware stack levels used:    1
  3654 ;; Hardware stack levels required when called:    3
  3655 ;; This function calls:
  3656 ;;		Nothing
  3657 ;; This function is called by:
  3658 ;;		_readCommand
  3659 ;; This function uses a non-reentrant model
  3660 ;;
  3661                           
  3662                           
  3663                           ;psect for function _readByte
  3664  0142                     _readByte:	
  3665                           
  3666                           ;main.c: 28: timeout = 0;
  3667                           
  3668                           ;incstack = 0
  3669                           ; Regs used in _readByte: [wreg+status,2]
  3670  0142  01F7               	clrf	_timeout	;volatile
  3671                           
  3672                           ;main.c: 29: TMR0L = 0;
  3673  0143  0020               	movlb	0	; select bank0
  3674  0144  0195               	clrf	21	;volatile
  3675                           
  3676                           ;main.c: 30: shiftCounter = 8;
  3677  0145  3008               	movlw	8
  3678  0146  00F2               	movwf	??_readByte
  3679  0147  0872               	movf	??_readByte,w
  3680  0148  00A6               	movwf	_shiftCounter	;volatile
  3681                           
  3682                           ; STATUS bits ;# 
  3683  0000                     	;# 
  3684  0002                     	;# 
  3685                           
  3686                           ; select bank for PORTC (bank 0) ;# 
  3687  0149  0020               	banksel	14	;# 
  3688  014A                     start_read:	
  3689                           ; reset timer 1 and count pulse length ;# 
  3690                           
  3691                           
  3692                           ;# 
  3693  014A  3000               	movlw	0	;# 
  3694  014B  0095               	movwf	21	;# 
  3695  014C  0099               	movwf	25	;# 
  3696  014D  009A               	movwf	26	;# 
  3697  014E                     rwait1:	
  3698                           
  3699                           ;# 
  3700  014E  0020               	banksel	_timeout	;# 
  3701  014F  1877               	btfsc	_timeout,0	;# 
  3702  0150  296A               	goto	timeout_exit	;# 
  3703  0151  0020               	banksel	14	;# 
  3704  0152  1D8E               	btfss	14,3	;# 
  3705  0153  294E               	goto	rwait1	;# 
  3706  0154  0020               	banksel	14	;# 
  3707  0155  3000               	movlw	0	;# 
  3708  0156  0095               	movwf	21	;# 
  3709  0157                     rwait0:	
  3710                           
  3711                           ;# 
  3712  0157  0020               	banksel	_timeout	;# 
  3713  0158  1877               	btfsc	_timeout,0	;# 
  3714  0159  296A               	goto	timeout_exit	;# 
  3715  015A  0020               	banksel	14	;# 
  3716  015B  198E               	btfsc	14,3	;# 
  3717  015C  2957               	goto	rwait0	;# 
  3718                           
  3719                           ; test for 1 or 0 bit length ;# 
  3720  015D  0819               	movf	25,w	;# 
  3721  015E  3C32               	sublw	50	;# 
  3722  015F  1C03               	btfss	3,0	;# 
  3723  0160  2963               	goto	rbit1	;# 
  3724  0161                     rbit0:	
  3725  0161  3000               	movlw	0	;# 
  3726  0162  2964               	goto	rbits	;# 
  3727  0163                     rbit1:	
  3728  0163  3001               	movlw	1	;# 
  3729  0164                     rbits:	
  3730  0164  0020               	banksel	_shift	;# 
  3731  0165  35FB               	lslf	_shift& (0+127),f	;# 
  3732  0166  04FB               	iorwf	_shift,f	;# 
  3733                           
  3734                           ; shift all bits ;# 
  3735  0167  0020               	banksel	_shiftCounter	;# 
  3736  0168  0BA6               	decfsz	_shiftCounter& (0+127),f	;# 
  3737  0169  294A               	goto	start_read	;# 
  3738  016A                     timeout_exit:	
  3739                           
  3740                           ;# 
  3741  016A  0020               	banksel	_shiftCounter	;# 
  3742                           
  3743                           ;main.c: 84: return shift;
  3744  016B  087B               	movf	_shift,w	;volatile
  3745  016C  0008               	return
  3746  016D                     __end_of_readByte:	
  3747                           
  3748                           	psect	text5
  3749  016D                     __ptext5:	
  3750 ;; *************** function _DATAEE_WriteByte *****************
  3751 ;; Defined at:
  3752 ;;		line 179 in file "mcc_generated_files/memory.c"
  3753 ;; Parameters:    Size  Location     Type
  3754 ;;  bAdd            2    2[COMMON] unsigned int 
  3755 ;;  bData           1    4[COMMON] unsigned char 
  3756 ;; Auto vars:     Size  Location     Type
  3757 ;;  GIEBitValue     1    5[COMMON] unsigned char 
  3758 ;; Return value:  Size  Location     Type
  3759 ;;                  1    wreg      void 
  3760 ;; Registers used:
  3761 ;;		wreg, status,2, status,0
  3762 ;; Tracked objects:
  3763 ;;		On entry : 0/0
  3764 ;;		On exit  : 0/0
  3765 ;;		Unchanged: 0/0
  3766 ;; Data sizes:     COMMON   BANK0   BANK1   BANK2
  3767 ;;      Params:         3       0       0       0
  3768 ;;      Locals:         1       0       0       0
  3769 ;;      Temps:          0       0       0       0
  3770 ;;      Totals:         4       0       0       0
  3771 ;;Total ram usage:        4 bytes
  3772 ;; Hardware stack levels used:    1
  3773 ;; Hardware stack levels required when called:    3
  3774 ;; This function calls:
  3775 ;;		Nothing
  3776 ;; This function is called by:
  3777 ;;		_readCommand
  3778 ;; This function uses a non-reentrant model
  3779 ;;
  3780                           
  3781                           
  3782                           ;psect for function _DATAEE_WriteByte
  3783  016D                     _DATAEE_WriteByte:	
  3784                           
  3785                           ;memory.c: 181: uint8_t GIEBitValue = INTCONbits.GIE;
  3786                           
  3787                           ;incstack = 0
  3788                           ; Regs used in _DATAEE_WriteByte: [wreg+status,2+status,0]
  3789  016D  3000               	movlw	0
  3790  016E  1B8B               	btfsc	11,7	;volatile
  3791  016F  3001               	movlw	1
  3792  0170  00F5               	movwf	DATAEE_WriteByte@GIEBitValue
  3793                           
  3794                           ;memory.c: 183: NVMADRH = ((bAdd >> 8) & 0xFF);
  3795  0171  0873               	movf	DATAEE_WriteByte@bAdd+1,w
  3796  0172  0031               	movlb	17	; select bank17
  3797  0173  0092               	movwf	18	;volatile
  3798                           
  3799                           ;memory.c: 184: NVMADRL = (bAdd & 0xFF);
  3800  0174  0872               	movf	DATAEE_WriteByte@bAdd,w
  3801  0175  0091               	movwf	17	;volatile
  3802                           
  3803                           ;memory.c: 185: NVMDATL = bData;
  3804  0176  0874               	movf	DATAEE_WriteByte@bData,w
  3805  0177  0093               	movwf	19	;volatile
  3806                           
  3807                           ;memory.c: 186: NVMCON1bits.NVMREGS = 1;
  3808  0178  1715               	bsf	21,6	;volsfr
  3809                           
  3810                           ;memory.c: 187: NVMCON1bits.WREN = 1;
  3811  0179  1515               	bsf	21,2	;volsfr
  3812                           
  3813                           ;memory.c: 188: INTCONbits.GIE = 0;
  3814  017A  138B               	bcf	11,7	;volatile
  3815                           
  3816                           ;memory.c: 189: NVMCON2 = 0x55;
  3817  017B  3055               	movlw	85
  3818  017C  0096               	movwf	22	;volsfr
  3819                           
  3820                           ;memory.c: 190: NVMCON2 = 0xAA;
  3821  017D  30AA               	movlw	170
  3822  017E  0096               	movwf	22	;volsfr
  3823                           
  3824                           ;memory.c: 191: NVMCON1bits.WR = 1;
  3825  017F  1495               	bsf	21,1	;volsfr
  3826  0180                     l320:	
  3827                           ;memory.c: 194: {
  3828                           
  3829                           ;memory.c: 193: while (NVMCON1bits.WR)
  3830                           
  3831  0180  1895               	btfsc	21,1	;volsfr
  3832  0181  2980               	goto	l320
  3833                           
  3834                           ;memory.c: 195: }
  3835                           ;memory.c: 197: NVMCON1bits.WREN = 0;
  3836  0182  1115               	bcf	21,2	;volsfr
  3837                           
  3838                           ;memory.c: 198: INTCONbits.GIE = GIEBitValue;
  3839  0183  0C75               	rrf	DATAEE_WriteByte@GIEBitValue,w
  3840  0184  1C03               	skipc
  3841  0185  138B               	bcf	11,7	;volatile
  3842  0186  1803               	skipnc
  3843  0187  178B               	bsf	11,7	;volatile
  3844  0188  0008               	return
  3845  0189                     __end_of_DATAEE_WriteByte:	
  3846                           
  3847                           	psect	text6
  3848  01E0                     __ptext6:	
  3849 ;; *************** function _DATAEE_ReadByte *****************
  3850 ;; Defined at:
  3851 ;;		line 201 in file "mcc_generated_files/memory.c"
  3852 ;; Parameters:    Size  Location     Type
  3853 ;;  bAdd            2    2[COMMON] unsigned int 
  3854 ;; Auto vars:     Size  Location     Type
  3855 ;;		None
  3856 ;; Return value:  Size  Location     Type
  3857 ;;                  1    wreg      unsigned char 
  3858 ;; Registers used:
  3859 ;;		wreg, status,2
  3860 ;; Tracked objects:
  3861 ;;		On entry : 0/0
  3862 ;;		On exit  : 0/0
  3863 ;;		Unchanged: 0/0
  3864 ;; Data sizes:     COMMON   BANK0   BANK1   BANK2
  3865 ;;      Params:         2       0       0       0
  3866 ;;      Locals:         0       0       0       0
  3867 ;;      Temps:          0       0       0       0
  3868 ;;      Totals:         2       0       0       0
  3869 ;;Total ram usage:        2 bytes
  3870 ;; Hardware stack levels used:    1
  3871 ;; Hardware stack levels required when called:    3
  3872 ;; This function calls:
  3873 ;;		Nothing
  3874 ;; This function is called by:
  3875 ;;		_readCommand
  3876 ;; This function uses a non-reentrant model
  3877 ;;
  3878                           
  3879                           
  3880                           ;psect for function _DATAEE_ReadByte
  3881  01E0                     _DATAEE_ReadByte:	
  3882                           
  3883                           ;memory.c: 203: NVMADRH = ((bAdd >> 8) & 0xFF);
  3884                           
  3885                           ;incstack = 0
  3886                           ; Regs used in _DATAEE_ReadByte: [wreg+status,2]
  3887  01E0  0873               	movf	DATAEE_ReadByte@bAdd+1,w
  3888  01E1  0031               	movlb	17	; select bank17
  3889  01E2  0092               	movwf	18	;volatile
  3890                           
  3891                           ;memory.c: 204: NVMADRL = (bAdd & 0xFF);
  3892  01E3  0872               	movf	DATAEE_ReadByte@bAdd,w
  3893  01E4  0091               	movwf	17	;volatile
  3894                           
  3895                           ;memory.c: 205: NVMCON1bits.NVMREGS = 1;
  3896  01E5  1715               	bsf	21,6	;volsfr
  3897                           
  3898                           ;memory.c: 206: NVMCON1bits.RD = 1;
  3899  01E6  1415               	bsf	21,0	;volsfr
  3900                           
  3901                           ;memory.c: 207: __nop();
  3902  01E7  0000               	nop
  3903                           
  3904                           ;memory.c: 208: __nop();
  3905  01E8  0000               	nop
  3906                           
  3907                           ;memory.c: 210: return (NVMDATL);
  3908  01E9  0031               	movlb	17	; select bank17
  3909  01EA  0813               	movf	19,w	;volatile
  3910  01EB  0008               	return
  3911  01EC                     __end_of_DATAEE_ReadByte:	
  3912                           
  3913                           	psect	text7
  3914  0218                     __ptext7:	
  3915 ;; *************** function _SYSTEM_Initialize *****************
  3916 ;; Defined at:
  3917 ;;		line 76 in file "mcc_generated_files/mcc.c"
  3918 ;; Parameters:    Size  Location     Type
  3919 ;;		None
  3920 ;; Auto vars:     Size  Location     Type
  3921 ;;		None
  3922 ;; Return value:  Size  Location     Type
  3923 ;;                  1    wreg      void 
  3924 ;; Registers used:
  3925 ;;		wreg, status,2, status,0, pclath, cstack
  3926 ;; Tracked objects:
  3927 ;;		On entry : 0/0
  3928 ;;		On exit  : 0/0
  3929 ;;		Unchanged: 0/0
  3930 ;; Data sizes:     COMMON   BANK0   BANK1   BANK2
  3931 ;;      Params:         0       0       0       0
  3932 ;;      Locals:         0       0       0       0
  3933 ;;      Temps:          0       0       0       0
  3934 ;;      Totals:         0       0       0       0
  3935 ;;Total ram usage:        0 bytes
  3936 ;; Hardware stack levels used:    1
  3937 ;; Hardware stack levels required when called:    5
  3938 ;; This function calls:
  3939 ;;		_CLC1_Initialize
  3940 ;;		_CLC2_Initialize
  3941 ;;		_EUSART_Initialize
  3942 ;;		_OSCILLATOR_Initialize
  3943 ;;		_PIN_MANAGER_Initialize
  3944 ;;		_TMR0_Initialize
  3945 ;;		_TMR1_Initialize
  3946 ;;		_WDT_Initialize
  3947 ;; This function is called by:
  3948 ;;		_main
  3949 ;; This function uses a non-reentrant model
  3950 ;;
  3951                           
  3952                           
  3953                           ;psect for function _SYSTEM_Initialize
  3954  0218                     _SYSTEM_Initialize:	
  3955                           
  3956                           ;mcc.c: 79: PIN_MANAGER_Initialize();
  3957                           
  3958                           ;incstack = 0
  3959                           ; Regs used in _SYSTEM_Initialize: [wreg+status,2+status,0+pclath+cstack]
  3960  0218  20F7               	fcall	_PIN_MANAGER_Initialize
  3961                           
  3962                           ;mcc.c: 80: OSCILLATOR_Initialize();
  3963  0219  21F8               	fcall	_OSCILLATOR_Initialize
  3964                           
  3965                           ;mcc.c: 81: WDT_Initialize();
  3966  021A  222C               	fcall	_WDT_Initialize
  3967                           
  3968                           ;mcc.c: 82: CLC1_Initialize();
  3969  021B  21C2               	fcall	_CLC1_Initialize
  3970                           
  3971                           ;mcc.c: 83: CLC2_Initialize();
  3972  021C  219F               	fcall	_CLC2_Initialize
  3973                           
  3974                           ;mcc.c: 84: TMR1_Initialize();
  3975  021D  21D3               	fcall	_TMR1_Initialize
  3976                           
  3977                           ;mcc.c: 85: TMR0_Initialize();
  3978  021E  21B1               	fcall	_TMR0_Initialize
  3979                           
  3980                           ;mcc.c: 86: EUSART_Initialize();
  3981  021F  2203               	fcall	_EUSART_Initialize
  3982  0220  0008               	return
  3983  0221                     __end_of_SYSTEM_Initialize:	
  3984                           
  3985                           	psect	text8
  3986  022C                     __ptext8:	
  3987 ;; *************** function _WDT_Initialize *****************
  3988 ;; Defined at:
  3989 ;;		line 107 in file "mcc_generated_files/mcc.c"
  3990 ;; Parameters:    Size  Location     Type
  3991 ;;		None
  3992 ;; Auto vars:     Size  Location     Type
  3993 ;;		None
  3994 ;; Return value:  Size  Location     Type
  3995 ;;                  1    wreg      void 
  3996 ;; Registers used:
  3997 ;;		wreg
  3998 ;; Tracked objects:
  3999 ;;		On entry : 0/0
  4000 ;;		On exit  : 0/0
  4001 ;;		Unchanged: 0/0
  4002 ;; Data sizes:     COMMON   BANK0   BANK1   BANK2
  4003 ;;      Params:         0       0       0       0
  4004 ;;      Locals:         0       0       0       0
  4005 ;;      Temps:          0       0       0       0
  4006 ;;      Totals:         0       0       0       0
  4007 ;;Total ram usage:        0 bytes
  4008 ;; Hardware stack levels used:    1
  4009 ;; Hardware stack levels required when called:    3
  4010 ;; This function calls:
  4011 ;;		Nothing
  4012 ;; This function is called by:
  4013 ;;		_SYSTEM_Initialize
  4014 ;; This function uses a non-reentrant model
  4015 ;;
  4016                           
  4017                           
  4018                           ;psect for function _WDT_Initialize
  4019  022C                     _WDT_Initialize:	
  4020                           
  4021                           ;mcc.c: 110: WDTCON = 0x16;
  4022                           
  4023                           ;incstack = 0
  4024                           ; Regs used in _WDT_Initialize: [wreg]
  4025  022C  3016               	movlw	22
  4026  022D  0021               	movlb	1	; select bank1
  4027  022E  0097               	movwf	23	;volatile
  4028  022F  0008               	return
  4029  0230                     __end_of_WDT_Initialize:	
  4030                           
  4031                           	psect	text9
  4032  01D3                     __ptext9:	
  4033 ;; *************** function _TMR1_Initialize *****************
  4034 ;; Defined at:
  4035 ;;		line 63 in file "mcc_generated_files/tmr1.c"
  4036 ;; Parameters:    Size  Location     Type
  4037 ;;		None
  4038 ;; Auto vars:     Size  Location     Type
  4039 ;;		None
  4040 ;; Return value:  Size  Location     Type
  4041 ;;                  1    wreg      void 
  4042 ;; Registers used:
  4043 ;;		wreg, status,2, status,0, pclath, cstack
  4044 ;; Tracked objects:
  4045 ;;		On entry : 0/0
  4046 ;;		On exit  : 0/0
  4047 ;;		Unchanged: 0/0
  4048 ;; Data sizes:     COMMON   BANK0   BANK1   BANK2
  4049 ;;      Params:         0       0       0       0
  4050 ;;      Locals:         0       0       0       0
  4051 ;;      Temps:          0       0       0       0
  4052 ;;      Totals:         0       0       0       0
  4053 ;;Total ram usage:        0 bytes
  4054 ;; Hardware stack levels used:    1
  4055 ;; Hardware stack levels required when called:    4
  4056 ;; This function calls:
  4057 ;;		_TMR1_StartTimer
  4058 ;; This function is called by:
  4059 ;;		_SYSTEM_Initialize
  4060 ;; This function uses a non-reentrant model
  4061 ;;
  4062                           
  4063                           
  4064                           ;psect for function _TMR1_Initialize
  4065  01D3                     _TMR1_Initialize:	
  4066                           
  4067                           ;tmr1.c: 68: T1CON = 0x00;
  4068                           
  4069                           ;incstack = 0
  4070                           ; Regs used in _TMR1_Initialize: [wreg+status,2+status,0+pclath+cstack]
  4071  01D3  0020               	movlb	0	; select bank0
  4072  01D4  019B               	clrf	27	;volatile
  4073                           
  4074                           ;tmr1.c: 71: T1GCON = 0xC0;
  4075  01D5  30C0               	movlw	192
  4076  01D6  009C               	movwf	28	;volatile
  4077                           
  4078                           ;tmr1.c: 74: TMR1H = 0x00;
  4079  01D7  019A               	clrf	26	;volatile
  4080                           
  4081                           ;tmr1.c: 77: TMR1L = 0x00;
  4082  01D8  0199               	clrf	25	;volatile
  4083                           
  4084                           ;tmr1.c: 80: timer1ReloadVal=(TMR1H << 8) | TMR1L;
  4085  01D9  081A               	movf	26,w	;volatile
  4086  01DA  00A5               	movwf	_timer1ReloadVal+1	;volatile
  4087  01DB  0819               	movf	25,w	;volatile
  4088  01DC  00A4               	movwf	_timer1ReloadVal	;volatile
  4089                           
  4090                           ;tmr1.c: 83: PIR1bits.TMR1IF = 0;
  4091  01DD  1011               	bcf	17,0	;volatile
  4092                           
  4093                           ;tmr1.c: 86: TMR1_StartTimer();
  4094  01DE  2230               	fcall	_TMR1_StartTimer
  4095  01DF  0008               	return
  4096  01E0                     __end_of_TMR1_Initialize:	
  4097                           
  4098                           	psect	text10
  4099  0230                     __ptext10:	
  4100 ;; *************** function _TMR1_StartTimer *****************
  4101 ;; Defined at:
  4102 ;;		line 89 in file "mcc_generated_files/tmr1.c"
  4103 ;; Parameters:    Size  Location     Type
  4104 ;;		None
  4105 ;; Auto vars:     Size  Location     Type
  4106 ;;		None
  4107 ;; Return value:  Size  Location     Type
  4108 ;;                  1    wreg      void 
  4109 ;; Registers used:
  4110 ;;		None
  4111 ;; Tracked objects:
  4112 ;;		On entry : 0/0
  4113 ;;		On exit  : 0/0
  4114 ;;		Unchanged: 0/0
  4115 ;; Data sizes:     COMMON   BANK0   BANK1   BANK2
  4116 ;;      Params:         0       0       0       0
  4117 ;;      Locals:         0       0       0       0
  4118 ;;      Temps:          0       0       0       0
  4119 ;;      Totals:         0       0       0       0
  4120 ;;Total ram usage:        0 bytes
  4121 ;; Hardware stack levels used:    1
  4122 ;; Hardware stack levels required when called:    3
  4123 ;; This function calls:
  4124 ;;		Nothing
  4125 ;; This function is called by:
  4126 ;;		_TMR1_Initialize
  4127 ;; This function uses a non-reentrant model
  4128 ;;
  4129                           
  4130                           
  4131                           ;psect for function _TMR1_StartTimer
  4132  0230                     _TMR1_StartTimer:	
  4133                           
  4134                           ;tmr1.c: 92: T1CONbits.TMR1ON = 1;
  4135                           
  4136                           ;incstack = 0
  4137                           ; Regs used in _TMR1_StartTimer: []
  4138  0230  0020               	movlb	0	; select bank0
  4139  0231  141B               	bsf	27,0	;volatile
  4140  0232  0008               	return
  4141  0233                     __end_of_TMR1_StartTimer:	
  4142                           
  4143                           	psect	text11
  4144  01B1                     __ptext11:	
  4145 ;; *************** function _TMR0_Initialize *****************
  4146 ;; Defined at:
  4147 ;;		line 60 in file "mcc_generated_files/tmr0.c"
  4148 ;; Parameters:    Size  Location     Type
  4149 ;;		None
  4150 ;; Auto vars:     Size  Location     Type
  4151 ;;		None
  4152 ;; Return value:  Size  Location     Type
  4153 ;;                  1    wreg      void 
  4154 ;; Registers used:
  4155 ;;		wreg, status,2, status,0, pclath, cstack
  4156 ;; Tracked objects:
  4157 ;;		On entry : 0/0
  4158 ;;		On exit  : 0/0
  4159 ;;		Unchanged: 0/0
  4160 ;; Data sizes:     COMMON   BANK0   BANK1   BANK2
  4161 ;;      Params:         0       0       0       0
  4162 ;;      Locals:         0       0       0       0
  4163 ;;      Temps:          0       0       0       0
  4164 ;;      Totals:         0       0       0       0
  4165 ;;Total ram usage:        0 bytes
  4166 ;; Hardware stack levels used:    1
  4167 ;; Hardware stack levels required when called:    4
  4168 ;; This function calls:
  4169 ;;		_TMR0_SetInterruptHandler
  4170 ;;		_TMR0_StartTimer
  4171 ;; This function is called by:
  4172 ;;		_SYSTEM_Initialize
  4173 ;; This function uses a non-reentrant model
  4174 ;;
  4175                           
  4176                           
  4177                           ;psect for function _TMR0_Initialize
  4178  01B1                     _TMR0_Initialize:	
  4179                           
  4180                           ;tmr0.c: 65: T0CON0 = 0x00;
  4181                           
  4182                           ;incstack = 0
  4183                           ; Regs used in _TMR0_Initialize: [wreg+status,2+status,0+pclath+cstack]
  4184  01B1  0020               	movlb	0	; select bank0
  4185  01B2  0197               	clrf	23	;volatile
  4186                           
  4187                           ;tmr0.c: 68: T0CON1 = 0x43;
  4188  01B3  3043               	movlw	67
  4189  01B4  0098               	movwf	24	;volatile
  4190                           
  4191                           ;tmr0.c: 71: TMR0H = 0xFF;
  4192  01B5  30FF               	movlw	255
  4193  01B6  0096               	movwf	22	;volatile
  4194                           
  4195                           ;tmr0.c: 74: TMR0L = 0x00;
  4196  01B7  0195               	clrf	21	;volatile
  4197                           
  4198                           ;tmr0.c: 77: PIR0bits.TMR0IF = 0;
  4199  01B8  1290               	bcf	16,5	;volatile
  4200                           
  4201                           ;tmr0.c: 80: PIE0bits.TMR0IE = 1;
  4202  01B9  0021               	movlb	1	; select bank1
  4203  01BA  1690               	bsf	16,5	;volatile
  4204                           
  4205                           ;tmr0.c: 83: TMR0_SetInterruptHandler(TMR0_DefaultInterruptHandler);
  4206  01BB  3036               	movlw	low _TMR0_DefaultInterruptHandler
  4207  01BC  00F2               	movwf	TMR0_SetInterruptHandler@InterruptHandler
  4208  01BD  3002               	movlw	high _TMR0_DefaultInterruptHandler
  4209  01BE  00F3               	movwf	TMR0_SetInterruptHandler@InterruptHandler+1
  4210  01BF  2221               	fcall	_TMR0_SetInterruptHandler
  4211                           
  4212                           ;tmr0.c: 86: TMR0_StartTimer();
  4213  01C0  2233               	fcall	_TMR0_StartTimer
  4214  01C1  0008               	return
  4215  01C2                     __end_of_TMR0_Initialize:	
  4216                           
  4217                           	psect	text12
  4218  0233                     __ptext12:	
  4219 ;; *************** function _TMR0_StartTimer *****************
  4220 ;; Defined at:
  4221 ;;		line 89 in file "mcc_generated_files/tmr0.c"
  4222 ;; Parameters:    Size  Location     Type
  4223 ;;		None
  4224 ;; Auto vars:     Size  Location     Type
  4225 ;;		None
  4226 ;; Return value:  Size  Location     Type
  4227 ;;                  1    wreg      void 
  4228 ;; Registers used:
  4229 ;;		None
  4230 ;; Tracked objects:
  4231 ;;		On entry : 0/0
  4232 ;;		On exit  : 0/0
  4233 ;;		Unchanged: 0/0
  4234 ;; Data sizes:     COMMON   BANK0   BANK1   BANK2
  4235 ;;      Params:         0       0       0       0
  4236 ;;      Locals:         0       0       0       0
  4237 ;;      Temps:          0       0       0       0
  4238 ;;      Totals:         0       0       0       0
  4239 ;;Total ram usage:        0 bytes
  4240 ;; Hardware stack levels used:    1
  4241 ;; Hardware stack levels required when called:    3
  4242 ;; This function calls:
  4243 ;;		Nothing
  4244 ;; This function is called by:
  4245 ;;		_TMR0_Initialize
  4246 ;; This function uses a non-reentrant model
  4247 ;;
  4248                           
  4249                           
  4250                           ;psect for function _TMR0_StartTimer
  4251  0233                     _TMR0_StartTimer:	
  4252                           
  4253                           ;tmr0.c: 92: T0CON0bits.T0EN = 1;
  4254                           
  4255                           ;incstack = 0
  4256                           ; Regs used in _TMR0_StartTimer: []
  4257  0233  0020               	movlb	0	; select bank0
  4258  0234  1797               	bsf	23,7	;volatile
  4259  0235  0008               	return
  4260  0236                     __end_of_TMR0_StartTimer:	
  4261                           
  4262                           	psect	text13
  4263  0221                     __ptext13:	
  4264 ;; *************** function _TMR0_SetInterruptHandler *****************
  4265 ;; Defined at:
  4266 ;;		line 136 in file "mcc_generated_files/tmr0.c"
  4267 ;; Parameters:    Size  Location     Type
  4268 ;;  InterruptHan    2    2[COMMON] PTR void 
  4269 ;;		 -> TMR0_DefaultInterruptHandler(1), 
  4270 ;; Auto vars:     Size  Location     Type
  4271 ;;		None
  4272 ;; Return value:  Size  Location     Type
  4273 ;;                  1    wreg      void 
  4274 ;; Registers used:
  4275 ;;		wreg
  4276 ;; Tracked objects:
  4277 ;;		On entry : 0/0
  4278 ;;		On exit  : 0/0
  4279 ;;		Unchanged: 0/0
  4280 ;; Data sizes:     COMMON   BANK0   BANK1   BANK2
  4281 ;;      Params:         2       0       0       0
  4282 ;;      Locals:         0       0       0       0
  4283 ;;      Temps:          0       0       0       0
  4284 ;;      Totals:         2       0       0       0
  4285 ;;Total ram usage:        2 bytes
  4286 ;; Hardware stack levels used:    1
  4287 ;; Hardware stack levels required when called:    3
  4288 ;; This function calls:
  4289 ;;		Nothing
  4290 ;; This function is called by:
  4291 ;;		_TMR0_Initialize
  4292 ;; This function uses a non-reentrant model
  4293 ;;
  4294                           
  4295                           
  4296                           ;psect for function _TMR0_SetInterruptHandler
  4297  0221                     _TMR0_SetInterruptHandler:	
  4298                           
  4299                           ;tmr0.c: 137: TMR0_InterruptHandler = InterruptHandler;
  4300                           
  4301                           ;incstack = 0
  4302                           ; Regs used in _TMR0_SetInterruptHandler: [wreg]
  4303  0221  0873               	movf	TMR0_SetInterruptHandler@InterruptHandler+1,w
  4304  0222  0020               	movlb	0	; select bank0
  4305  0223  00A8               	movwf	_TMR0_InterruptHandler+1
  4306  0224  0872               	movf	TMR0_SetInterruptHandler@InterruptHandler,w
  4307  0225  00A7               	movwf	_TMR0_InterruptHandler
  4308  0226  0008               	return
  4309  0227                     __end_of_TMR0_SetInterruptHandler:	
  4310                           
  4311                           	psect	text14
  4312  00F7                     __ptext14:	
  4313 ;; *************** function _PIN_MANAGER_Initialize *****************
  4314 ;; Defined at:
  4315 ;;		line 51 in file "mcc_generated_files/pin_manager.c"
  4316 ;; Parameters:    Size  Location     Type
  4317 ;;		None
  4318 ;; Auto vars:     Size  Location     Type
  4319 ;;  state           1    2[COMMON] unsigned char 
  4320 ;; Return value:  Size  Location     Type
  4321 ;;                  1    wreg      void 
  4322 ;; Registers used:
  4323 ;;		wreg, status,2, status,0
  4324 ;; Tracked objects:
  4325 ;;		On entry : 0/0
  4326 ;;		On exit  : 0/0
  4327 ;;		Unchanged: 0/0
  4328 ;; Data sizes:     COMMON   BANK0   BANK1   BANK2
  4329 ;;      Params:         0       0       0       0
  4330 ;;      Locals:         1       0       0       0
  4331 ;;      Temps:          0       0       0       0
  4332 ;;      Totals:         1       0       0       0
  4333 ;;Total ram usage:        1 bytes
  4334 ;; Hardware stack levels used:    1
  4335 ;; Hardware stack levels required when called:    3
  4336 ;; This function calls:
  4337 ;;		Nothing
  4338 ;; This function is called by:
  4339 ;;		_SYSTEM_Initialize
  4340 ;; This function uses a non-reentrant model
  4341 ;;
  4342                           
  4343                           
  4344                           ;psect for function _PIN_MANAGER_Initialize
  4345  00F7                     _PIN_MANAGER_Initialize:	
  4346                           
  4347                           ;pin_manager.c: 56: LATA = 0x00;
  4348                           
  4349                           ;incstack = 0
  4350                           ; Regs used in _PIN_MANAGER_Initialize: [wreg+status,2+status,0]
  4351  00F7  0022               	movlb	2	; select bank2
  4352  00F8  018C               	clrf	12	;volatile
  4353                           
  4354                           ;pin_manager.c: 57: LATC = 0x00;
  4355  00F9  018E               	clrf	14	;volatile
  4356                           
  4357                           ;pin_manager.c: 62: TRISA = 0x31;
  4358  00FA  3031               	movlw	49
  4359  00FB  0021               	movlb	1	; select bank1
  4360  00FC  008C               	movwf	12	;volatile
  4361                           
  4362                           ;pin_manager.c: 63: TRISC = 0x1C;
  4363  00FD  301C               	movlw	28
  4364  00FE  008E               	movwf	14	;volatile
  4365                           
  4366                           ;pin_manager.c: 68: ANSELC = 0x00;
  4367  00FF  0023               	movlb	3	; select bank3
  4368  0100  018E               	clrf	14	;volatile
  4369                           
  4370                           ;pin_manager.c: 69: ANSELA = 0x00;
  4371  0101  018C               	clrf	12	;volatile
  4372                           
  4373                           ;pin_manager.c: 74: WPUA = 0x08;
  4374  0102  3008               	movlw	8
  4375  0103  0024               	movlb	4	; select bank4
  4376  0104  008C               	movwf	12	;volatile
  4377                           
  4378                           ;pin_manager.c: 75: WPUC = 0x10;
  4379  0105  3010               	movlw	16
  4380  0106  008E               	movwf	14	;volatile
  4381                           
  4382                           ;pin_manager.c: 80: ODCONA = 0x00;
  4383  0107  0025               	movlb	5	; select bank5
  4384  0108  018C               	clrf	12	;volatile
  4385                           
  4386                           ;pin_manager.c: 81: ODCONC = 0x00;
  4387  0109  018E               	clrf	14	;volatile
  4388                           
  4389                           ;pin_manager.c: 88: bool state = GIE;
  4390  010A  3000               	movlw	0
  4391  010B  1B8B               	btfsc	11,7	;volatile
  4392  010C  3001               	movlw	1
  4393  010D  00F2               	movwf	PIN_MANAGER_Initialize@state
  4394                           
  4395                           ;pin_manager.c: 89: GIE = 0;
  4396  010E  138B               	bcf	11,7	;volatile
  4397                           
  4398                           ;pin_manager.c: 90: PPSLOCK = 0x55;
  4399  010F  3055               	movlw	85
  4400  0110  003C               	movlb	28	; select bank28
  4401  0111  008F               	movwf	15	;volatile
  4402                           
  4403                           ;pin_manager.c: 91: PPSLOCK = 0xAA;
  4404  0112  30AA               	movlw	170
  4405  0113  008F               	movwf	15	;volatile
  4406                           
  4407                           ;pin_manager.c: 92: PPSLOCKbits.PPSLOCKED = 0x00;
  4408  0114  100F               	bcf	15,0	;volatile
  4409                           
  4410                           ;pin_manager.c: 94: RC1PPSbits.RC1PPS = 0x14;
  4411  0115  003D               	movlb	29	; select bank29
  4412  0116  0821               	movf	33,w	;volatile
  4413  0117  39E0               	andlw	-32
  4414  0118  3814               	iorlw	20
  4415  0119  00A1               	movwf	33	;volatile
  4416                           
  4417                           ;pin_manager.c: 95: CLCIN1PPSbits.CLCIN1PPS = 0x04;
  4418  011A  003C               	movlb	28	; select bank28
  4419  011B  0829               	movf	41,w	;volatile
  4420  011C  39E0               	andlw	-32
  4421  011D  3804               	iorlw	4
  4422  011E  00A9               	movwf	41	;volatile
  4423                           
  4424                           ;pin_manager.c: 96: RXPPSbits.RXPPS = 0x14;
  4425  011F  0824               	movf	36,w	;volatile
  4426  0120  39E0               	andlw	-32
  4427  0121  3814               	iorlw	20
  4428  0122  00A4               	movwf	36	;volatile
  4429                           
  4430                           ;pin_manager.c: 97: T1GPPSbits.T1GPPS = 0x13;
  4431  0123  0813               	movf	19,w	;volatile
  4432  0124  39E0               	andlw	-32
  4433  0125  3813               	iorlw	19
  4434  0126  0093               	movwf	19	;volatile
  4435                           
  4436                           ;pin_manager.c: 98: CLCIN0PPSbits.CLCIN0PPS = 0x00;
  4437  0127  30E0               	movlw	-32
  4438  0128  05A8               	andwf	40,f	;volatile
  4439                           
  4440                           ;pin_manager.c: 99: CLCIN2PPSbits.CLCIN2PPS = 0x12;
  4441  0129  082A               	movf	42,w	;volatile
  4442  012A  39E0               	andlw	-32
  4443  012B  3812               	iorlw	18
  4444  012C  00AA               	movwf	42	;volatile
  4445                           
  4446                           ;pin_manager.c: 100: CLCIN3PPSbits.CLCIN3PPS = 0x13;
  4447  012D  082B               	movf	43,w	;volatile
  4448  012E  39E0               	andlw	-32
  4449  012F  3813               	iorlw	19
  4450  0130  00AB               	movwf	43	;volatile
  4451                           
  4452                           ;pin_manager.c: 101: RC5PPSbits.RC5PPS = 0x05;
  4453  0131  003D               	movlb	29	; select bank29
  4454  0132  0825               	movf	37,w	;volatile
  4455  0133  39E0               	andlw	-32
  4456  0134  3805               	iorlw	5
  4457  0135  00A5               	movwf	37	;volatile
  4458                           
  4459                           ;pin_manager.c: 103: PPSLOCK = 0x55;
  4460  0136  3055               	movlw	85
  4461  0137  003C               	movlb	28	; select bank28
  4462  0138  008F               	movwf	15	;volatile
  4463                           
  4464                           ;pin_manager.c: 104: PPSLOCK = 0xAA;
  4465  0139  30AA               	movlw	170
  4466  013A  008F               	movwf	15	;volatile
  4467                           
  4468                           ;pin_manager.c: 105: PPSLOCKbits.PPSLOCKED = 0x01;
  4469  013B  140F               	bsf	15,0	;volatile
  4470                           
  4471                           ;pin_manager.c: 107: GIE = state;
  4472  013C  1C72               	btfss	PIN_MANAGER_Initialize@state,0
  4473  013D  2940               	goto	u270
  4474  013E  178B               	bsf	11,7	;volatile
  4475  013F  0008               	return
  4476  0140                     u270:	
  4477  0140  138B               	bcf	11,7	;volatile
  4478  0141  0008               	return
  4479  0142                     __end_of_PIN_MANAGER_Initialize:	
  4480                           
  4481                           	psect	text15
  4482  01F8                     __ptext15:	
  4483 ;; *************** function _OSCILLATOR_Initialize *****************
  4484 ;; Defined at:
  4485 ;;		line 89 in file "mcc_generated_files/mcc.c"
  4486 ;; Parameters:    Size  Location     Type
  4487 ;;		None
  4488 ;; Auto vars:     Size  Location     Type
  4489 ;;		None
  4490 ;; Return value:  Size  Location     Type
  4491 ;;                  1    wreg      void 
  4492 ;; Registers used:
  4493 ;;		wreg, status,2
  4494 ;; Tracked objects:
  4495 ;;		On entry : 0/0
  4496 ;;		On exit  : 0/0
  4497 ;;		Unchanged: 0/0
  4498 ;; Data sizes:     COMMON   BANK0   BANK1   BANK2
  4499 ;;      Params:         0       0       0       0
  4500 ;;      Locals:         0       0       0       0
  4501 ;;      Temps:          0       0       0       0
  4502 ;;      Totals:         0       0       0       0
  4503 ;;Total ram usage:        0 bytes
  4504 ;; Hardware stack levels used:    1
  4505 ;; Hardware stack levels required when called:    3
  4506 ;; This function calls:
  4507 ;;		Nothing
  4508 ;; This function is called by:
  4509 ;;		_SYSTEM_Initialize
  4510 ;; This function uses a non-reentrant model
  4511 ;;
  4512                           
  4513                           
  4514                           ;psect for function _OSCILLATOR_Initialize
  4515  01F8                     _OSCILLATOR_Initialize:	
  4516                           
  4517                           ;mcc.c: 92: OSCCON1 = 0x10;
  4518                           
  4519                           ;incstack = 0
  4520                           ; Regs used in _OSCILLATOR_Initialize: [wreg+status,2]
  4521  01F8  3010               	movlw	16
  4522  01F9  0032               	movlb	18	; select bank18
  4523  01FA  0099               	movwf	25	;volatile
  4524                           
  4525                           ;mcc.c: 94: OSCCON3 = 0x00;
  4526  01FB  019B               	clrf	27	;volatile
  4527                           
  4528                           ;mcc.c: 96: OSCEN = 0x00;
  4529  01FC  019D               	clrf	29	;volatile
  4530                           
  4531                           ;mcc.c: 98: OSCFRQ = 0x04;
  4532  01FD  3004               	movlw	4
  4533  01FE  009F               	movwf	31	;volatile
  4534                           
  4535                           ;mcc.c: 100: OSCTUNE = 0x00;
  4536  01FF  019E               	clrf	30	;volatile
  4537  0200                     l112:	
  4538                           ;mcc.c: 103: {
  4539                           
  4540                           ;mcc.c: 102: while(PLLR == 0)
  4541                           
  4542  0200  181C               	btfsc	28,0	;volatile
  4543  0201  0008               	return
  4544  0202  2A00               	goto	l112
  4545  0203                     __end_of_OSCILLATOR_Initialize:	
  4546                           
  4547                           	psect	text16
  4548  0203                     __ptext16:	
  4549 ;; *************** function _EUSART_Initialize *****************
  4550 ;; Defined at:
  4551 ;;		line 55 in file "mcc_generated_files/eusart.c"
  4552 ;; Parameters:    Size  Location     Type
  4553 ;;		None
  4554 ;; Auto vars:     Size  Location     Type
  4555 ;;		None
  4556 ;; Return value:  Size  Location     Type
  4557 ;;                  1    wreg      void 
  4558 ;; Registers used:
  4559 ;;		wreg, status,2
  4560 ;; Tracked objects:
  4561 ;;		On entry : 0/0
  4562 ;;		On exit  : 0/0
  4563 ;;		Unchanged: 0/0
  4564 ;; Data sizes:     COMMON   BANK0   BANK1   BANK2
  4565 ;;      Params:         0       0       0       0
  4566 ;;      Locals:         0       0       0       0
  4567 ;;      Temps:          0       0       0       0
  4568 ;;      Totals:         0       0       0       0
  4569 ;;Total ram usage:        0 bytes
  4570 ;; Hardware stack levels used:    1
  4571 ;; Hardware stack levels required when called:    3
  4572 ;; This function calls:
  4573 ;;		Nothing
  4574 ;; This function is called by:
  4575 ;;		_SYSTEM_Initialize
  4576 ;; This function uses a non-reentrant model
  4577 ;;
  4578                           
  4579                           
  4580                           ;psect for function _EUSART_Initialize
  4581  0203                     _EUSART_Initialize:	
  4582                           
  4583                           ;eusart.c: 60: BAUD1CON = 0x08;
  4584                           
  4585                           ;incstack = 0
  4586                           ; Regs used in _EUSART_Initialize: [wreg+status,2]
  4587  0203  3008               	movlw	8
  4588  0204  0023               	movlb	3	; select bank3
  4589  0205  009F               	movwf	31	;volatile
  4590                           
  4591                           ;eusart.c: 63: RC1STA = 0x90;
  4592  0206  3090               	movlw	144
  4593  0207  009D               	movwf	29	;volatile
  4594                           
  4595                           ;eusart.c: 66: TX1STA = 0x04;
  4596  0208  3004               	movlw	4
  4597  0209  009E               	movwf	30	;volatile
  4598                           
  4599                           ;eusart.c: 69: SP1BRGL = 0xFF;
  4600  020A  30FF               	movlw	255
  4601  020B  009B               	movwf	27	;volatile
  4602                           
  4603                           ;eusart.c: 72: SP1BRGH = 0x00;
  4604  020C  019C               	clrf	28	;volatile
  4605  020D  0008               	return
  4606  020E                     __end_of_EUSART_Initialize:	
  4607                           
  4608                           	psect	text17
  4609  019F                     __ptext17:	
  4610 ;; *************** function _CLC2_Initialize *****************
  4611 ;; Defined at:
  4612 ;;		line 57 in file "mcc_generated_files/clc2.c"
  4613 ;; Parameters:    Size  Location     Type
  4614 ;;		None
  4615 ;; Auto vars:     Size  Location     Type
  4616 ;;		None
  4617 ;; Return value:  Size  Location     Type
  4618 ;;                  1    wreg      void 
  4619 ;; Registers used:
  4620 ;;		wreg, status,2
  4621 ;; Tracked objects:
  4622 ;;		On entry : 0/0
  4623 ;;		On exit  : 0/0
  4624 ;;		Unchanged: 0/0
  4625 ;; Data sizes:     COMMON   BANK0   BANK1   BANK2
  4626 ;;      Params:         0       0       0       0
  4627 ;;      Locals:         0       0       0       0
  4628 ;;      Temps:          0       0       0       0
  4629 ;;      Totals:         0       0       0       0
  4630 ;;Total ram usage:        0 bytes
  4631 ;; Hardware stack levels used:    1
  4632 ;; Hardware stack levels required when called:    3
  4633 ;; This function calls:
  4634 ;;		Nothing
  4635 ;; This function is called by:
  4636 ;;		_SYSTEM_Initialize
  4637 ;; This function uses a non-reentrant model
  4638 ;;
  4639                           
  4640                           
  4641                           ;psect for function _CLC2_Initialize
  4642  019F                     _CLC2_Initialize:	
  4643                           
  4644                           ;clc2.c: 62: CLC2POL = 0x02;
  4645                           
  4646                           ;incstack = 0
  4647                           ; Regs used in _CLC2_Initialize: [wreg+status,2]
  4648  019F  3002               	movlw	2
  4649  01A0  003E               	movlb	30	; select bank30
  4650  01A1  009B               	movwf	27	;volatile
  4651                           
  4652                           ;clc2.c: 65: CLC2SEL0 = 0x00;
  4653  01A2  019C               	clrf	28	;volatile
  4654                           
  4655                           ;clc2.c: 68: CLC2SEL1 = 0x01;
  4656  01A3  3001               	movlw	1
  4657  01A4  009D               	movwf	29	;volatile
  4658                           
  4659                           ;clc2.c: 71: CLC2SEL2 = 0x02;
  4660  01A5  3002               	movlw	2
  4661  01A6  009E               	movwf	30	;volatile
  4662                           
  4663                           ;clc2.c: 74: CLC2SEL3 = 0x03;
  4664  01A7  3003               	movlw	3
  4665  01A8  009F               	movwf	31	;volatile
  4666                           
  4667                           ;clc2.c: 77: CLC2GLS0 = 0x22;
  4668  01A9  3022               	movlw	34
  4669  01AA  00A0               	movwf	32	;volatile
  4670                           
  4671                           ;clc2.c: 80: CLC2GLS1 = 0x00;
  4672  01AB  01A1               	clrf	33	;volatile
  4673                           
  4674                           ;clc2.c: 83: CLC2GLS2 = 0x00;
  4675  01AC  01A2               	clrf	34	;volatile
  4676                           
  4677                           ;clc2.c: 86: CLC2GLS3 = 0x00;
  4678  01AD  01A3               	clrf	35	;volatile
  4679                           
  4680                           ;clc2.c: 89: CLC2CON = 0x80;
  4681  01AE  3080               	movlw	128
  4682  01AF  009A               	movwf	26	;volatile
  4683  01B0  0008               	return
  4684  01B1                     __end_of_CLC2_Initialize:	
  4685                           
  4686                           	psect	text18
  4687  01C2                     __ptext18:	
  4688 ;; *************** function _CLC1_Initialize *****************
  4689 ;; Defined at:
  4690 ;;		line 57 in file "mcc_generated_files/clc1.c"
  4691 ;; Parameters:    Size  Location     Type
  4692 ;;		None
  4693 ;; Auto vars:     Size  Location     Type
  4694 ;;		None
  4695 ;; Return value:  Size  Location     Type
  4696 ;;                  1    wreg      void 
  4697 ;; Registers used:
  4698 ;;		wreg, status,2
  4699 ;; Tracked objects:
  4700 ;;		On entry : 0/0
  4701 ;;		On exit  : 0/0
  4702 ;;		Unchanged: 0/0
  4703 ;; Data sizes:     COMMON   BANK0   BANK1   BANK2
  4704 ;;      Params:         0       0       0       0
  4705 ;;      Locals:         0       0       0       0
  4706 ;;      Temps:          0       0       0       0
  4707 ;;      Totals:         0       0       0       0
  4708 ;;Total ram usage:        0 bytes
  4709 ;; Hardware stack levels used:    1
  4710 ;; Hardware stack levels required when called:    3
  4711 ;; This function calls:
  4712 ;;		Nothing
  4713 ;; This function is called by:
  4714 ;;		_SYSTEM_Initialize
  4715 ;; This function uses a non-reentrant model
  4716 ;;
  4717                           
  4718                           
  4719                           ;psect for function _CLC1_Initialize
  4720  01C2                     _CLC1_Initialize:	
  4721                           
  4722                           ;clc1.c: 62: CLC1POL = 0x04;
  4723                           
  4724                           ;incstack = 0
  4725                           ; Regs used in _CLC1_Initialize: [wreg+status,2]
  4726  01C2  3004               	movlw	4
  4727  01C3  003E               	movlb	30	; select bank30
  4728  01C4  0091               	movwf	17	;volatile
  4729                           
  4730                           ;clc1.c: 65: CLC1SEL0 = 0x00;
  4731  01C5  0192               	clrf	18	;volatile
  4732                           
  4733                           ;clc1.c: 68: CLC1SEL1 = 0x01;
  4734  01C6  3001               	movlw	1
  4735  01C7  0093               	movwf	19	;volatile
  4736                           
  4737                           ;clc1.c: 71: CLC1SEL2 = 0x02;
  4738  01C8  3002               	movlw	2
  4739  01C9  0094               	movwf	20	;volatile
  4740                           
  4741                           ;clc1.c: 74: CLC1SEL3 = 0x03;
  4742  01CA  3003               	movlw	3
  4743  01CB  0095               	movwf	21	;volatile
  4744                           
  4745                           ;clc1.c: 77: CLC1GLS0 = 0x00;
  4746  01CC  0196               	clrf	22	;volatile
  4747                           
  4748                           ;clc1.c: 80: CLC1GLS1 = 0x00;
  4749  01CD  0197               	clrf	23	;volatile
  4750                           
  4751                           ;clc1.c: 83: CLC1GLS2 = 0x00;
  4752  01CE  0198               	clrf	24	;volatile
  4753                           
  4754                           ;clc1.c: 86: CLC1GLS3 = 0x80;
  4755  01CF  3080               	movlw	128
  4756  01D0  0099               	movwf	25	;volatile
  4757                           
  4758                           ;clc1.c: 89: CLC1CON = 0x00;
  4759  01D1  0190               	clrf	16	;volatile
  4760  01D2  0008               	return
  4761  01D3                     __end_of_CLC1_Initialize:	
  4762                           
  4763                           	psect	intentry
  4764  0004                     __pintentry:	
  4765 ;; *************** function _INTERRUPT_InterruptManager *****************
  4766 ;; Defined at:
  4767 ;;		line 51 in file "mcc_generated_files/interrupt_manager.c"
  4768 ;; Parameters:    Size  Location     Type
  4769 ;;		None
  4770 ;; Auto vars:     Size  Location     Type
  4771 ;;		None
  4772 ;; Return value:  Size  Location     Type
  4773 ;;                  1    wreg      void 
  4774 ;; Registers used:
  4775 ;;		wreg, status,2, status,0, pclath, cstack
  4776 ;; Tracked objects:
  4777 ;;		On entry : 0/0
  4778 ;;		On exit  : 0/0
  4779 ;;		Unchanged: 0/0
  4780 ;; Data sizes:     COMMON   BANK0   BANK1   BANK2
  4781 ;;      Params:         0       0       0       0
  4782 ;;      Locals:         0       0       0       0
  4783 ;;      Temps:          1       0       0       0
  4784 ;;      Totals:         1       0       0       0
  4785 ;;Total ram usage:        1 bytes
  4786 ;; Hardware stack levels used:    1
  4787 ;; Hardware stack levels required when called:    2
  4788 ;; This function calls:
  4789 ;;		_TMR0_ISR
  4790 ;; This function is called by:
  4791 ;;		Interrupt level 1
  4792 ;; This function uses a non-reentrant model
  4793 ;;
  4794                           
  4795  0004                     _INTERRUPT_InterruptManager:	
  4796                           
  4797                           ;incstack = 0
  4798  0004  147E               	bsf	126,0	;set compiler interrupt flag (level 1)
  4799                           
  4800                           ; Regs used in _INTERRUPT_InterruptManager: [wreg+status,2+status,0+pclath+cstack]
  4801  0005  3180               	pagesel	$
  4802  0006  0020               	movlb	0	; select bank0
  4803  0007  087F               	movf	127,w
  4804  0008  00F1               	movwf	??_INTERRUPT_InterruptManager
  4805                           
  4806                           ;interrupt_manager.c: 54: if(PIE0bits.TMR0IE == 1 && PIR0bits.TMR0IF == 1)
  4807  0009  0021               	movlb	1	; select bank1
  4808  000A  1E90               	btfss	16,5	;volatile
  4809  000B  2810               	goto	i1l339
  4810  000C  0020               	movlb	0	; select bank0
  4811  000D  1E90               	btfss	16,5	;volatile
  4812  000E  2810               	goto	i1l339
  4813                           
  4814                           ;interrupt_manager.c: 55: {
  4815                           ;interrupt_manager.c: 56: TMR0_ISR();
  4816  000F  21EC               	fcall	_TMR0_ISR
  4817  0010                     i1l339:	
  4818                           ;interrupt_manager.c: 58: else
  4819                           ;interrupt_manager.c: 59: {
  4820                           
  4821                           ;interrupt_manager.c: 57: }
  4822                           
  4823  0010  0871               	movf	??_INTERRUPT_InterruptManager,w
  4824  0011  0020               	movlb	0	; select bank0
  4825  0012  00FF               	movwf	127
  4826  0013  107E               	bcf	126,0	;clear compiler interrupt flag (level 1)
  4827  0014  0009               	retfie
  4828  0015                     __end_of_INTERRUPT_InterruptManager:	
  4829                           
  4830                           	psect	text20
  4831  01EC                     __ptext20:	
  4832 ;; *************** function _TMR0_ISR *****************
  4833 ;; Defined at:
  4834 ;;		line 123 in file "mcc_generated_files/tmr0.c"
  4835 ;; Parameters:    Size  Location     Type
  4836 ;;		None
  4837 ;; Auto vars:     Size  Location     Type
  4838 ;;		None
  4839 ;; Return value:  Size  Location     Type
  4840 ;;                  1    wreg      void 
  4841 ;; Registers used:
  4842 ;;		wreg, status,2, status,0, pclath, cstack
  4843 ;; Tracked objects:
  4844 ;;		On entry : 0/0
  4845 ;;		On exit  : 0/0
  4846 ;;		Unchanged: 0/0
  4847 ;; Data sizes:     COMMON   BANK0   BANK1   BANK2
  4848 ;;      Params:         0       0       0       0
  4849 ;;      Locals:         0       0       0       0
  4850 ;;      Temps:          0       0       0       0
  4851 ;;      Totals:         0       0       0       0
  4852 ;;Total ram usage:        0 bytes
  4853 ;; Hardware stack levels used:    1
  4854 ;; Hardware stack levels required when called:    1
  4855 ;; This function calls:
  4856 ;;		Absolute function
  4857 ;;		_TMR0_DefaultInterruptHandler
  4858 ;;		_tmr0irq
  4859 ;; This function is called by:
  4860 ;;		_INTERRUPT_InterruptManager
  4861 ;; This function uses a non-reentrant model
  4862 ;;
  4863                           
  4864                           
  4865                           ;psect for function _TMR0_ISR
  4866  01EC                     _TMR0_ISR:	
  4867                           
  4868                           ;tmr0.c: 126: PIR0bits.TMR0IF = 0;
  4869                           
  4870                           ;incstack = 0
  4871                           ; Regs used in _TMR0_ISR: [wreg+status,2+status,0+pclath+cstack]
  4872  01EC  0020               	movlb	0	; select bank0
  4873  01ED  1290               	bcf	16,5	;volatile
  4874                           
  4875                           ;tmr0.c: 127: if(TMR0_InterruptHandler)
  4876  01EE  0827               	movf	_TMR0_InterruptHandler,w
  4877  01EF  0428               	iorwf	_TMR0_InterruptHandler+1,w
  4878  01F0  1903               	btfsc	3,2
  4879  01F1  0008               	return
  4880                           
  4881                           ;tmr0.c: 128: {
  4882                           ;tmr0.c: 129: TMR0_InterruptHandler();
  4883  01F2  0828               	movf	_TMR0_InterruptHandler+1,w
  4884  01F3  008A               	movwf	10
  4885  01F4  0827               	movf	_TMR0_InterruptHandler,w
  4886  01F5  000A               	callw
  4887  01F6  3181               	pagesel	$
  4888  01F7  0008               	return
  4889  01F8                     __end_of_TMR0_ISR:	
  4890                           
  4891                           	psect	text21
  4892  0236                     __ptext21:	
  4893 ;; *************** function _TMR0_DefaultInterruptHandler *****************
  4894 ;; Defined at:
  4895 ;;		line 140 in file "mcc_generated_files/tmr0.c"
  4896 ;; Parameters:    Size  Location     Type
  4897 ;;		None
  4898 ;; Auto vars:     Size  Location     Type
  4899 ;;		None
  4900 ;; Return value:  Size  Location     Type
  4901 ;;                  1    wreg      void 
  4902 ;; Registers used:
  4903 ;;		None
  4904 ;; Tracked objects:
  4905 ;;		On entry : 0/0
  4906 ;;		On exit  : 0/0
  4907 ;;		Unchanged: 0/0
  4908 ;; Data sizes:     COMMON   BANK0   BANK1   BANK2
  4909 ;;      Params:         0       0       0       0
  4910 ;;      Locals:         0       0       0       0
  4911 ;;      Temps:          0       0       0       0
  4912 ;;      Totals:         0       0       0       0
  4913 ;;Total ram usage:        0 bytes
  4914 ;; Hardware stack levels used:    1
  4915 ;; This function calls:
  4916 ;;		Nothing
  4917 ;; This function is called by:
  4918 ;;		_TMR0_Initialize
  4919 ;;		_TMR0_ISR
  4920 ;; This function uses a non-reentrant model
  4921 ;;
  4922                           
  4923                           
  4924                           ;psect for function _TMR0_DefaultInterruptHandler
  4925  0236                     _TMR0_DefaultInterruptHandler:	
  4926                           
  4927                           ;incstack = 0
  4928                           ; Regs used in _TMR0_DefaultInterruptHandler: []
  4929  0236  0008               	return
  4930  0237                     __end_of_TMR0_DefaultInterruptHandler:	
  4931                           
  4932                           	psect	text22
  4933  0227                     __ptext22:	
  4934 ;; *************** function _tmr0irq *****************
  4935 ;; Defined at:
  4936 ;;		line 290 in file "main.c"
  4937 ;; Parameters:    Size  Location     Type
  4938 ;;		None
  4939 ;; Auto vars:     Size  Location     Type
  4940 ;;		None
  4941 ;; Return value:  Size  Location     Type
  4942 ;;                  1    wreg      void 
  4943 ;; Registers used:
  4944 ;;		wreg
  4945 ;; Tracked objects:
  4946 ;;		On entry : 0/0
  4947 ;;		On exit  : 0/0
  4948 ;;		Unchanged: 0/0
  4949 ;; Data sizes:     COMMON   BANK0   BANK1   BANK2
  4950 ;;      Params:         0       0       0       0
  4951 ;;      Locals:         0       0       0       0
  4952 ;;      Temps:          1       0       0       0
  4953 ;;      Totals:         1       0       0       0
  4954 ;;Total ram usage:        1 bytes
  4955 ;; Hardware stack levels used:    1
  4956 ;; This function calls:
  4957 ;;		Nothing
  4958 ;; This function is called by:
  4959 ;;		_main
  4960 ;;		_TMR0_ISR
  4961 ;; This function uses a non-reentrant model
  4962 ;;
  4963                           
  4964                           
  4965                           ;psect for function _tmr0irq
  4966  0227                     _tmr0irq:	
  4967                           
  4968                           ;main.c: 292: timeout = 1;
  4969                           
  4970                           ;incstack = 0
  4971                           ; Regs used in _tmr0irq: [wreg]
  4972  0227  3001               	movlw	1
  4973  0228  00F0               	movwf	??_tmr0irq
  4974  0229  0870               	movf	??_tmr0irq,w
  4975  022A  00F7               	movwf	_timeout	;volatile
  4976  022B  0008               	return
  4977  022C                     __end_of_tmr0irq:	
  4978  007E                     btemp	set	126	;btemp
  4979  007E                     int$flags	set	126
  4980  007E                     wtemp0	set	126


Data Sizes:
    Strings     0
    Constant    0
    Data        0
    BSS         12
    Persistent  2
    Stack       0

Auto Spaces:
    Space          Size  Autos    Used
    COMMON           14      7      12
    BANK0            80      2      11
    BANK1            80      0       0
    BANK2            80      0       0

Pointer List with Targets:

    TMR1_InterruptHandler	PTR FTN()void  size(2) Largest target is 1
		 -> Absolute function(), 

    TMR0_SetInterruptHandler@InterruptHandler	PTR void  size(2) Largest target is 1
		 -> TMR0_DefaultInterruptHandler(), 

    TMR0_InterruptHandler	PTR FTN()void  size(2) Largest target is 1
		 -> tmr0irq(), Absolute function(), TMR0_DefaultInterruptHandler(), 


Critical Paths under _main in COMMON

    _main->_readCommand
    _readCommand->_DATAEE_WriteByte
    _TMR0_Initialize->_TMR0_SetInterruptHandler

Critical Paths under _INTERRUPT_InterruptManager in COMMON

    _TMR0_ISR->_tmr0irq

Critical Paths under _main in BANK0

    None.

Critical Paths under _INTERRUPT_InterruptManager in BANK0

    None.

Critical Paths under _main in BANK1

    None.

Critical Paths under _INTERRUPT_InterruptManager in BANK1

    None.

Critical Paths under _main in BANK2

    None.

Critical Paths under _INTERRUPT_InterruptManager in BANK2

    None.

Call Graph Tables:

 ---------------------------------------------------------------------------------
 (Depth) Function   	        Calls       Base Space   Used Autos Params    Refs
 ---------------------------------------------------------------------------------
 (0) _main                                                 2     2      0     520
                                              0 BANK0      2     2      0
                  _SYSTEM_Initialize
                        _readCommand
 ---------------------------------------------------------------------------------
 (1) _readCommand                                          1     1      0     411
                                              6 COMMON     1     1      0
                    _DATAEE_ReadByte
                   _DATAEE_WriteByte
                           _readByte
                          _waitStart
                          _writeByte
 ---------------------------------------------------------------------------------
 (2) _writeByte                                            2     2      0      22
                                              2 COMMON     2     2      0
 ---------------------------------------------------------------------------------
 (2) _waitStart                                            0     0      0       0
 ---------------------------------------------------------------------------------
 (2) _readByte                                             1     1      0       0
                                              2 COMMON     1     1      0
 ---------------------------------------------------------------------------------
 (2) _DATAEE_WriteByte                                     4     1      3     217
                                              2 COMMON     4     1      3
 ---------------------------------------------------------------------------------
 (2) _DATAEE_ReadByte                                      2     0      2     172
                                              2 COMMON     2     0      2
 ---------------------------------------------------------------------------------
 (1) _SYSTEM_Initialize                                    0     0      0     109
                    _CLC1_Initialize
                    _CLC2_Initialize
                  _EUSART_Initialize
              _OSCILLATOR_Initialize
             _PIN_MANAGER_Initialize
                    _TMR0_Initialize
                    _TMR1_Initialize
                     _WDT_Initialize
 ---------------------------------------------------------------------------------
 (2) _WDT_Initialize                                       0     0      0       0
 ---------------------------------------------------------------------------------
 (2) _TMR1_Initialize                                      0     0      0       0
                    _TMR1_StartTimer
 ---------------------------------------------------------------------------------
 (3) _TMR1_StartTimer                                      0     0      0       0
 ---------------------------------------------------------------------------------
 (2) _TMR0_Initialize                                      0     0      0      86
           _TMR0_SetInterruptHandler
                    _TMR0_StartTimer
 ---------------------------------------------------------------------------------
 (3) _TMR0_StartTimer                                      0     0      0       0
 ---------------------------------------------------------------------------------
 (3) _TMR0_SetInterruptHandler                             2     0      2      86
                                              2 COMMON     2     0      2
 ---------------------------------------------------------------------------------
 (2) _PIN_MANAGER_Initialize                               1     1      0      23
                                              2 COMMON     1     1      0
 ---------------------------------------------------------------------------------
 (2) _OSCILLATOR_Initialize                                0     0      0       0
 ---------------------------------------------------------------------------------
 (2) _EUSART_Initialize                                    0     0      0       0
 ---------------------------------------------------------------------------------
 (2) _CLC2_Initialize                                      0     0      0       0
 ---------------------------------------------------------------------------------
 (2) _CLC1_Initialize                                      0     0      0       0
 ---------------------------------------------------------------------------------
 Estimated maximum stack depth 3
 ---------------------------------------------------------------------------------
 (Depth) Function   	        Calls       Base Space   Used Autos Params    Refs
 ---------------------------------------------------------------------------------
 (4) _INTERRUPT_InterruptManager                           1     1      0       0
                                              1 COMMON     1     1      0
                           _TMR0_ISR
 ---------------------------------------------------------------------------------
 (5) _TMR0_ISR                                             0     0      0       0
                   Absolute function *
       _TMR0_DefaultInterruptHandler *
                            _tmr0irq *
 ---------------------------------------------------------------------------------
 (6) _tmr0irq                                              1     1      0       0
                                              0 COMMON     1     1      0
 ---------------------------------------------------------------------------------
 (6) _TMR0_DefaultInterruptHandler                         0     0      0       0
 ---------------------------------------------------------------------------------
 (6) Absolute function(Fake)                               0     0      0       0
 ---------------------------------------------------------------------------------
 Estimated maximum stack depth 6
 ---------------------------------------------------------------------------------

 Call Graph Graphs:

 _main (ROOT)
   _SYSTEM_Initialize
     _CLC1_Initialize
     _CLC2_Initialize
     _EUSART_Initialize
     _OSCILLATOR_Initialize
     _PIN_MANAGER_Initialize
     _TMR0_Initialize
       _TMR0_SetInterruptHandler
       _TMR0_StartTimer
     _TMR1_Initialize
       _TMR1_StartTimer
     _WDT_Initialize
   _readCommand
     _DATAEE_ReadByte
     _DATAEE_WriteByte
     _readByte
     _waitStart
     _writeByte

 _INTERRUPT_InterruptManager (ROOT)
   _TMR0_ISR
     Absolute function(Fake) *
     _TMR0_DefaultInterruptHandler *
     _tmr0irq *

 Address spaces:
Name               Size   Autos  Total    Cost      Usage
BIGRAM              F0      0       0       0        0.0%
EEDATA             100      0       0       0        0.0%
NULL                 0      0       0       0        0.0%
CODE                 0      0       0       0        0.0%
BITCOMMON            E      0       0       1        0.0%
BITSFR0              0      0       0       1        0.0%
SFR0                 0      0       0       1        0.0%
COMMON               E      7       C       2       85.7%
BITSFR1              0      0       0       2        0.0%
SFR1                 0      0       0       2        0.0%
BITSFR2              0      0       0       3        0.0%
SFR2                 0      0       0       3        0.0%
STACK                0      0       0       3        0.0%
BITSFR3              0      0       0       4        0.0%
SFR3                 0      0       0       4        0.0%
ABS                  0      0      17       4        0.0%
BITBANK0            50      0       0       5        0.0%
BITSFR4              0      0       0       5        0.0%
SFR4                 0      0       0       5        0.0%
BANK0               50      2       B       6       13.8%
BITSFR5              0      0       0       6        0.0%
SFR5                 0      0       0       6        0.0%
BITBANK1            50      0       0       7        0.0%
BITSFR6              0      0       0       7        0.0%
SFR6                 0      0       0       7        0.0%
BANK1               50      0       0       8        0.0%
BITSFR7              0      0       0       8        0.0%
SFR7                 0      0       0       8        0.0%
BITBANK2            50      0       0       9        0.0%
BITSFR8              0      0       0       9        0.0%
SFR8                 0      0       0       9        0.0%
BANK2               50      0       0      10        0.0%
BITSFR9              0      0       0      10        0.0%
SFR9                 0      0       0      10        0.0%
BITSFR10             0      0       0      11        0.0%
SFR10                0      0       0      11        0.0%
DATA                 0      0      17      11        0.0%
BITSFR11             0      0       0      12        0.0%
SFR11                0      0       0      12        0.0%
BITSFR12             0      0       0      13        0.0%
SFR12                0      0       0      13        0.0%
BITSFR13             0      0       0      14        0.0%
SFR13                0      0       0      14        0.0%
BITSFR14             0      0       0      15        0.0%
SFR14                0      0       0      15        0.0%
BITSFR15             0      0       0      16        0.0%
SFR15                0      0       0      16        0.0%
BITSFR16             0      0       0      17        0.0%
SFR16                0      0       0      17        0.0%
BITSFR17             0      0       0      18        0.0%
SFR17                0      0       0      18        0.0%
BITSFR18             0      0       0      19        0.0%
SFR18                0      0       0      19        0.0%
BITSFR19             0      0       0      20        0.0%
SFR19                0      0       0      20        0.0%
BITSFR20             0      0       0      21        0.0%
SFR20                0      0       0      21        0.0%
BITSFR21             0      0       0      22        0.0%
SFR21                0      0       0      22        0.0%
BITSFR22             0      0       0      23        0.0%
SFR22                0      0       0      23        0.0%
BITSFR23             0      0       0      24        0.0%
SFR23                0      0       0      24        0.0%
BITSFR24             0      0       0      25        0.0%
SFR24                0      0       0      25        0.0%
BITSFR25             0      0       0      26        0.0%
SFR25                0      0       0      26        0.0%
BITSFR26             0      0       0      27        0.0%
SFR26                0      0       0      27        0.0%
BITSFR27             0      0       0      28        0.0%
SFR27                0      0       0      28        0.0%
BITSFR28             0      0       0      29        0.0%
SFR28                0      0       0      29        0.0%
BITSFR29             0      0       0      30        0.0%
SFR29                0      0       0      30        0.0%
BITSFR30             0      0       0      31        0.0%
SFR30                0      0       0      31        0.0%
BITSFR31             0      0       0      32        0.0%
SFR31                0      0       0      32        0.0%


Microchip Technology PIC Macro Assembler V1.42 build -159332390 
Symbol Table                                                                                   Fri Jan 26 10:29:36 2018

                                        C 0000                               __CFG_CP$OFF 0000  
                                      _id 007A                                       l112 0200  
                                     l320 0180                                       l400 0072  
                                     l401 0076                                       l402 0077  
                                     l403 007B                                       l404 007C  
                                     l405 0080                                       l398 006B  
                                     l399 0070                                       _GIE 005F  
                                     u270 0140                              __CFG_CPD$OFF 0000  
                                     u437 0197                           _timer1ReloadVal 0024  
                                     _cmd 0079                                       _arg 0078  
                                     bit0 00E1                                       bits 00CF  
                                     wait 0211                         ??_CLC2_Initialize 0072  
                                     wreg 0009                              __CFG_LVP$OFF 0000  
                                    TMR1H 001A                                      TMR0L 0015  
                                    TMR1L 0019                                      PORTC 000E  
                                    l1511 0041                                      l1513 0044  
                                    l1531 0084                                      l1541 0090  
                                    l1517 004F                                      l1543 0093  
                                    l1519 0061                                      l1537 008C  
                                    l1529 0081                                      l1547 0096  
                                    l1581 019D                                      TRISC 008E  
                                    _LATA 010C                                      _LATC 010E  
                                    _PLLR 48E0                                      _WPUA 020C  
                                    _WPUC 020E                              __CFG_WRT$OFF 0000  
                           __CFG_FCMEN$ON 0000                                      _main 0189  
                         _TMR0_StartTimer 0233                                      btemp 007E  
                                    rbit0 0161                                      rbit1 0163  
                           __CFG_BOREN$ON 0000                                      rbits 0164  
                                    wait1 00B6                             __CFG_BORV$LOW 0000  
                                    start 0015                             __CFG_CSWEN$ON 0000  
                            ?_readCommand 0070                 __size_of_DATAEE_WriteByte 001C  
                 __end_of_TMR0_Initialize 01C2            ??_TMR0_DefaultInterruptHandler 0070  
          __size_of_OSCILLATOR_Initialize 000B             __end_of_OSCILLATOR_Initialize 0203  
                                   STATUS 0003                                     ?_main 0070  
                           __CFG_WDTE$OFF 0000                           _TMR1_StartTimer 0230  
                                   _T1CON 001B                            __CFG_DEBUG$OFF 0000  
                                   i1l339 0010                                     _OSCEN 091D  
                                   _TMR0H 0016                                     _TMR1H 001A  
                                   _TMR0L 0015                                     _TMR1L 0019  
                                   _TRISA 008C                                     _TRISC 008E  
       __size_of_TMR0_SetInterruptHandler 0006                 ?_TMR0_SetInterruptHandler 0072  
                        __end_of_TMR0_ISR 01F8                           _DATAEE_ReadByte 01E0  
                          _WDT_Initialize 022C                                     _shift 007B  
                         __end_of_tmr0irq 022C                   __end_of_TMR1_Initialize 01E0  
                                   pclath 000A                                     wait80 00E4  
                                   rwait0 0157                                     rwait1 014E  
                                   status 0003                                     wtemp0 007E  
                          __CFG_MCLRE$OFF 0000                           __initialization 0016  
                            __end_of_main 019F               ?_INTERRUPT_InterruptManager 0070  
                                  ??_main 0029                    __end_of_WDT_Initialize 0230  
                 __end_of_TMR0_StartTimer 0236                                    _ANSELA 018C  
                                  _ANSELC 018E                                    _T0CON0 0017  
                                  _T0CON1 0018                                    _T1GCON 001C  
                                  _RC1REG 0199                                    _RC1STA 019D  
                                  _ODCONA 028C                                    _ODCONC 028E  
                                  _OSCFRQ 091F                                    _TX1REG 019A  
                                  _WDTCON 0097                                    _TX1STA 019E  
                          __CFG_PWRTE$OFF 0000                   __end_of_TMR1_StartTimer 0233  
                          __CFG_STVREN$ON 0000                          __end_of_readByte 016D  
                        ?_TMR0_Initialize 0070                   __end_of_DATAEE_ReadByte 01EC  
                                  wait200 00CA                                    wait201 00BA  
                                  wait202 00C0                                    wait220 00EB  
                                  wait140 00DC                                    wait160 00D5  
                         ?_WDT_Initialize 0070                                 ??_tmr0irq 0070  
TMR0_SetInterruptHandler@InterruptHandler 0072                           _CLC1_Initialize 01C2  
                        ?_TMR1_Initialize 0070                         _SYSTEM_Initialize 0218  
                 __end_of__initialization 0023                        ?_SYSTEM_Initialize 0070  
                          __pcstackCOMMON 0070                       ??_SYSTEM_Initialize 0074  
                               ?_TMR0_ISR 0070                           _CLC2_Initialize 019F  
                        _DATAEE_WriteByte 016D                      __size_of_readCommand 0085  
                        ?_TMR0_StartTimer 0070                 __end_of_SYSTEM_Initialize 0221  
                              __pbssBANK0 0020                                __pmaintext 0189  
                           _CLCIN0PPSbits 0E28                             _CLCIN1PPSbits 0E29  
        __end_of_TMR0_SetInterruptHandler 0227                             _CLCIN2PPSbits 0E2A  
                        ?_TMR1_StartTimer 0070                                ??_TMR0_ISR 0071  
                         __CFG_PPS1WAY$ON 0000                             _CLCIN3PPSbits 0E2B  
                              __pintentry 0004                                   _CLC1CON 0F10  
                                 _CLC2CON 0F1A                                   _CLC1POL 0F11  
                                 _CLC2POL 0F1B                        __size_of_waitStart 000A  
                        ?_DATAEE_ReadByte 0072                   __end_of_CLC1_Initialize 01D3  
                                 _SP1BRGH 019C                                   _SP1BRGL 019B  
                                 _OSCCON1 0919                                   _OSCCON3 091B  
                                 _NVMADRH 0892                                   _NVMADRL 0891  
                                 _NVMDATH 0894                                   _OSCTUNE 091E  
                                 _NVMDATL 0893                                   _NVMCON2 0896  
                                 _PPSLOCK 0E0F                      DATAEE_WriteByte@bAdd 0072  
                               ?_readByte 0070                   __end_of_CLC2_Initialize 01B1  
                      __size_of_writeByte 004C                                   __ptext1 0026  
                                 __ptext2 00AB                                   __ptext3 020E  
                                 __ptext4 0142                                   __ptext5 016D  
                                 __ptext6 01E0                                   __ptext7 0218  
                                 __ptext8 022C                                   __ptext9 01D3  
                               _T1CONbits 001B                     _OSCILLATOR_Initialize 01F8  
                ??_PIN_MANAGER_Initialize 0072                                   _tmr0irq 0227  
                                 _timeout 0077                __size_of_SYSTEM_Initialize 0009  
                    end_of_initialization 0023                                ??_readByte 0072  
                       __end_of_waitStart 0218                         _EUSART_Initialize 0203  
                      ?_EUSART_Initialize 0070                       ??_EUSART_Initialize 0072  
                        ??_WDT_Initialize 0072                  _TMR0_SetInterruptHandler 0221  
                               _PORTAbits 000C                                 _PORTCbits 000E  
                        ?_CLC1_Initialize 0070                         __end_of_writeByte 00F7  
                        __CFG_FEXTOSC$ECM 0000                  __end_of_DATAEE_WriteByte 0189  
                               _RXPPSbits 0E24                 __end_of_EUSART_Initialize 020E  
                        ?_CLC2_Initialize 0070                               timeout_exit 016A  
                             _CLC1CONbits 0F10                               _CLC2CONbits 0F1A  
                       __size_of_TMR0_ISR 000C                    ?_OSCILLATOR_Initialize 0070  
                     start_initialization 0016                  __size_of_TMR0_Initialize 0011  
         __size_of_PIN_MANAGER_Initialize 004B                         __CFG_RSTOSC$EXT4X 0000  
                     DATAEE_ReadByte@bAdd 0072                          __CFG_LPBOREN$OFF 0000  
                __size_of_TMR1_Initialize 000D                             ??_readCommand 0076  
                             __pbssCOMMON 0077                                 ___latbits 0000  
                           __pcstackBANK0 0029                __size_of_EUSART_Initialize 000B  
                   _TMR0_InterruptHandler 0027                                 __pnvBANK0 0027  
                __size_of_TMR0_StartTimer 0003                         __size_of_readByte 002B  
                  _PIN_MANAGER_Initialize 00F7                                 _eepromAdr 0020  
            ??_INTERRUPT_InterruptManager 0071                                  _BAUD1CON 019F  
                     __end_of_readCommand 00AB                                  _CLC1GLS0 0F16  
                                _CLC1GLS1 0F17                                  _CLC1GLS2 0F18  
                                _CLC1GLS3 0F19                                  _CLC2GLS0 0F20  
                                _CLC2GLS1 0F21                                  _CLC2GLS2 0F22  
                                _CLC2GLS3 0F23                                  _CLC1SEL0 0F12  
                                _CLC1SEL1 0F13                                  _CLC1SEL2 0F14  
                                _CLC1SEL3 0F15                  __size_of_TMR1_StartTimer 0003  
                                _CLC2SEL0 0F1C                                  _CLC2SEL1 0F1D  
                                _CLC2SEL2 0F1E                                  _CLC2SEL3 0F1F  
                                ?_tmr0irq 0070                  __size_of_DATAEE_ReadByte 000C  
                       ??_TMR0_Initialize 0074                                  _PIE0bits 0090  
     __size_of_INTERRUPT_InterruptManager 0011                ??_TMR0_SetInterruptHandler 0074  
                                _PIR0bits 0010                                  _PIR1bits 0011  
                               _waitStart 020E                                  _TMR0_ISR 01EC  
                       ??_TMR1_Initialize 0072                     DATAEE_WriteByte@bData 0074  
                               _writeByte 00AB                         ?_DATAEE_WriteByte 0072  
                      ??_DATAEE_WriteByte 0075                                ?_waitStart 0070  
                 ??_OSCILLATOR_Initialize 0072                               _readCommand 0026  
                       ??_TMR0_StartTimer 0072                                start_write 00CE  
                   _TMR1_InterruptHandler 0022                                _T0CON0bits 0017  
                        __size_of_tmr0irq 0005                                  __ptext10 0230  
                                __ptext11 01B1                                  __ptext20 01EC  
                                __ptext12 0233                                  __ptext21 0236  
                                __ptext13 0221                                _T1GCONbits 001C  
                                __ptext22 0227                                  __ptext14 00F7  
                                __ptext15 01F8                                  __ptext16 0203  
                                __ptext17 019F                                  __ptext18 01C2  
                              ?_writeByte 0070                              _shiftCounter 0026  
                       ??_TMR1_StartTimer 0072                  __size_of_CLC1_Initialize 0011  
             DATAEE_WriteByte@GIEBitValue 0075                                  _readByte 0142  
                              _T1GPPSbits 0E13                             __size_of_main 0016  
    __end_of_TMR0_DefaultInterruptHandler 0237     __size_of_TMR0_DefaultInterruptHandler 0001  
            _TMR0_DefaultInterruptHandler 0236                         ??_DATAEE_ReadByte 0074  
                              _RC1PPSbits 0EA1                                _RC1STAbits 019D  
                              writeByte@b 0073                                  int$flags 007E  
                              _RC5PPSbits 0EA5        __end_of_INTERRUPT_InterruptManager 0015  
              _INTERRUPT_InterruptManager 0004                  __size_of_CLC2_Initialize 0012  
             PIN_MANAGER_Initialize@state 0072                                _INTCONbits 000B  
                             _NVMCON1bits 0895                                 start_read 014A  
                 __size_of_WDT_Initialize 0004                                 winit_wait 020F  
                                intlevel1 0000                   ?_PIN_MANAGER_Initialize 0070  
                       __CFG_CLKOUTEN$OFF 0000                               _PPSLOCKbits 0E0F  
           ?_TMR0_DefaultInterruptHandler 0070                               ??_waitStart 0072  
                         _TMR0_Initialize 01B1                                  write_end 00EF  
                             ??_writeByte 0072            __end_of_PIN_MANAGER_Initialize 0142  
                         _TMR1_Initialize 01D3                         ??_CLC1_Initialize 0072  
