

Microchip Technology PIC LITE Macro Assembler V1.42 build -159332390 
                                                                                               Sat Dec 16 22:48:29 2017

Microchip Technology Omniscient Code Generator v1.42 (Free mode) build 201704130522
     1                           	processor	16F18323
     2                           	opt	pw 120
     3                           	opt	lm
     4                           	psect	cinit,global,class=CODE,merge=1,delta=2
     5                           	psect	cstackCOMMON,global,class=COMMON,space=1,delta=1
     6                           	psect	maintext,global,class=CODE,merge=1,split=1,delta=2
     7                           	psect	text1,local,class=CODE,merge=1,delta=2
     8                           	psect	text2,local,class=CODE,merge=1,delta=2
     9                           	psect	text3,local,class=CODE,merge=1,delta=2
    10                           	psect	text4,local,class=CODE,merge=1,delta=2
    11                           	psect	text5,local,class=CODE,merge=1,delta=2
    12                           	psect	text6,local,class=CODE,merge=1,delta=2
    13                           	psect	text7,local,class=CODE,merge=1,delta=2
    14                           	dabs	1,0x7E,2
    15  0000                     
    16                           ; Version 1.42
    17                           ; Generated 13/04/2017 GMT
    18                           ; 
    19                           ; Copyright © 2017, Microchip Technology Inc. and its subsidiaries ("Microchip")
    20                           ; All rights reserved.
    21                           ; 
    22                           ; This software is developed by Microchip Technology Inc. and its subsidiaries ("Microch
      +                          ip").
    23                           ; 
    24                           ; Redistribution and use in source and binary forms, with or without modification, are
    25                           ; permitted provided that the following conditions are met:
    26                           ; 
    27                           ;     1. Redistributions of source code must retain the above copyright notice, this lis
      +                          t of
    28                           ;        conditions and the following disclaimer.
    29                           ; 
    30                           ;     2. Redistributions in binary form must reproduce the above copyright notice, this 
      +                          list
    31                           ;        of conditions and the following disclaimer in the documentation and/or other
    32                           ;        materials provided with the distribution.
    33                           ; 
    34                           ;     3. Microchip's name may not be used to endorse or promote products derived from th
      +                          is
    35                           ;        software without specific prior written permission.
    36                           ; 
    37                           ; THIS SOFTWARE IS PROVIDED BY MICROCHIP "AS IS" AND ANY EXPRESS OR IMPLIED WARRANTIES,
    38                           ; INCLUDING, BUT NOT LIMITED TO, THE IMPLIED WARRANTIES OF MERCHANTABILITY AND FITNESS F
      +                          OR
    39                           ; PURPOSE ARE DISCLAIMED.  IN NO EVENT SHALL MICROCHIP BE LIABLE FOR ANY DIRECT, INDIREC
      +                          T,
    40                           ; INCIDENTAL, SPECIAL, EXEMPLARY, OR CONSEQUENTIAL DAMAGES (INCLUDING BUT NOT LIMITED TO
    41                           ; PROCUREMENT OF SUBSTITUTE GOODS OR SERVICES; LOSS OF USE, DATA OR PROFITS; OR BUSINESS
    42                           ; INTERRUPTION) HOWSOEVER CAUSED AND ON ANY THEORY OF LIABILITY, WHETHER IN CONTRACT, ST
      +                          RICT
    43                           ; LIABILITY, OR TORT (INCLUDING NEGLIGENCE OR OTHERWISE) ARISING IN ANY WAY OUT OF THE U
      +                          SE OF
    44                           ; THIS SOFTWARE, EVEN IF ADVISED OF THE POSSIBILITY OF SUCH DAMAGE.
    45                           ; 
    46                           ; 
    47                           ; Code-generator required, PIC16F18323 Definitions
    48                           ; 
    49                           ; SFR Addresses
    50  0000                     	;# 
    51  0001                     	;# 
    52  0002                     	;# 
    53  0003                     	;# 
    54  0004                     	;# 
    55  0005                     	;# 
    56  0006                     	;# 
    57  0007                     	;# 
    58  0008                     	;# 
    59  0009                     	;# 
    60  000A                     	;# 
    61  000B                     	;# 
    62  000C                     	;# 
    63  000E                     	;# 
    64  0010                     	;# 
    65  0011                     	;# 
    66  0012                     	;# 
    67  0013                     	;# 
    68  0014                     	;# 
    69  0015                     	;# 
    70  0015                     	;# 
    71  0016                     	;# 
    72  0016                     	;# 
    73  0017                     	;# 
    74  0018                     	;# 
    75  0019                     	;# 
    76  0019                     	;# 
    77  001A                     	;# 
    78  001B                     	;# 
    79  001C                     	;# 
    80  001D                     	;# 
    81  001E                     	;# 
    82  001F                     	;# 
    83  008C                     	;# 
    84  008E                     	;# 
    85  0090                     	;# 
    86  0091                     	;# 
    87  0092                     	;# 
    88  0093                     	;# 
    89  0094                     	;# 
    90  0097                     	;# 
    91  009B                     	;# 
    92  009B                     	;# 
    93  009C                     	;# 
    94  009D                     	;# 
    95  009E                     	;# 
    96  009F                     	;# 
    97  010C                     	;# 
    98  010E                     	;# 
    99  0111                     	;# 
   100  0112                     	;# 
   101  0113                     	;# 
   102  0114                     	;# 
   103  0115                     	;# 
   104  0116                     	;# 
   105  0117                     	;# 
   106  0118                     	;# 
   107  0119                     	;# 
   108  018C                     	;# 
   109  018E                     	;# 
   110  0197                     	;# 
   111  0199                     	;# 
   112  0199                     	;# 
   113  0199                     	;# 
   114  019A                     	;# 
   115  019A                     	;# 
   116  019A                     	;# 
   117  019B                     	;# 
   118  019B                     	;# 
   119  019B                     	;# 
   120  019B                     	;# 
   121  019B                     	;# 
   122  019C                     	;# 
   123  019C                     	;# 
   124  019C                     	;# 
   125  019D                     	;# 
   126  019D                     	;# 
   127  019D                     	;# 
   128  019E                     	;# 
   129  019E                     	;# 
   130  019E                     	;# 
   131  019F                     	;# 
   132  019F                     	;# 
   133  019F                     	;# 
   134  019F                     	;# 
   135  019F                     	;# 
   136  020C                     	;# 
   137  020E                     	;# 
   138  0211                     	;# 
   139  0211                     	;# 
   140  0212                     	;# 
   141  0212                     	;# 
   142  0213                     	;# 
   143  0213                     	;# 
   144  0214                     	;# 
   145  0214                     	;# 
   146  0215                     	;# 
   147  0215                     	;# 
   148  0215                     	;# 
   149  0215                     	;# 
   150  0216                     	;# 
   151  0216                     	;# 
   152  0217                     	;# 
   153  0217                     	;# 
   154  028C                     	;# 
   155  028E                     	;# 
   156  0291                     	;# 
   157  0291                     	;# 
   158  0292                     	;# 
   159  0293                     	;# 
   160  0294                     	;# 
   161  0295                     	;# 
   162  0295                     	;# 
   163  0296                     	;# 
   164  0297                     	;# 
   165  0298                     	;# 
   166  030C                     	;# 
   167  030E                     	;# 
   168  038C                     	;# 
   169  038E                     	;# 
   170  0391                     	;# 
   171  0392                     	;# 
   172  0393                     	;# 
   173  0397                     	;# 
   174  0398                     	;# 
   175  0399                     	;# 
   176  039A                     	;# 
   177  039C                     	;# 
   178  039D                     	;# 
   179  039E                     	;# 
   180  039F                     	;# 
   181  0498                     	;# 
   182  0498                     	;# 
   183  0499                     	;# 
   184  049A                     	;# 
   185  049B                     	;# 
   186  049B                     	;# 
   187  049C                     	;# 
   188  049D                     	;# 
   189  049E                     	;# 
   190  049F                     	;# 
   191  0617                     	;# 
   192  0618                     	;# 
   193  0619                     	;# 
   194  0619                     	;# 
   195  061A                     	;# 
   196  061B                     	;# 
   197  061C                     	;# 
   198  061C                     	;# 
   199  0691                     	;# 
   200  0692                     	;# 
   201  0693                     	;# 
   202  0694                     	;# 
   203  0695                     	;# 
   204  0696                     	;# 
   205  0697                     	;# 
   206  0698                     	;# 
   207  0699                     	;# 
   208  0891                     	;# 
   209  0891                     	;# 
   210  0891                     	;# 
   211  0891                     	;# 
   212  0891                     	;# 
   213  0891                     	;# 
   214  0892                     	;# 
   215  0892                     	;# 
   216  0892                     	;# 
   217  0893                     	;# 
   218  0893                     	;# 
   219  0893                     	;# 
   220  0893                     	;# 
   221  0893                     	;# 
   222  0893                     	;# 
   223  0894                     	;# 
   224  0894                     	;# 
   225  0894                     	;# 
   226  0895                     	;# 
   227  0895                     	;# 
   228  0895                     	;# 
   229  0896                     	;# 
   230  0896                     	;# 
   231  0896                     	;# 
   232  089B                     	;# 
   233  0911                     	;# 
   234  0912                     	;# 
   235  0913                     	;# 
   236  0914                     	;# 
   237  0915                     	;# 
   238  0916                     	;# 
   239  0918                     	;# 
   240  0919                     	;# 
   241  091A                     	;# 
   242  091B                     	;# 
   243  091C                     	;# 
   244  091D                     	;# 
   245  091E                     	;# 
   246  091F                     	;# 
   247  0E0F                     	;# 
   248  0E10                     	;# 
   249  0E11                     	;# 
   250  0E12                     	;# 
   251  0E13                     	;# 
   252  0E14                     	;# 
   253  0E15                     	;# 
   254  0E18                     	;# 
   255  0E1A                     	;# 
   256  0E1B                     	;# 
   257  0E1C                     	;# 
   258  0E20                     	;# 
   259  0E21                     	;# 
   260  0E22                     	;# 
   261  0E24                     	;# 
   262  0E25                     	;# 
   263  0E28                     	;# 
   264  0E29                     	;# 
   265  0E2A                     	;# 
   266  0E2B                     	;# 
   267  0E90                     	;# 
   268  0E91                     	;# 
   269  0E92                     	;# 
   270  0E94                     	;# 
   271  0E95                     	;# 
   272  0EA0                     	;# 
   273  0EA1                     	;# 
   274  0EA2                     	;# 
   275  0EA3                     	;# 
   276  0EA4                     	;# 
   277  0EA5                     	;# 
   278  0F0F                     	;# 
   279  0F10                     	;# 
   280  0F11                     	;# 
   281  0F12                     	;# 
   282  0F13                     	;# 
   283  0F14                     	;# 
   284  0F15                     	;# 
   285  0F16                     	;# 
   286  0F17                     	;# 
   287  0F18                     	;# 
   288  0F19                     	;# 
   289  0F1A                     	;# 
   290  0F1B                     	;# 
   291  0F1C                     	;# 
   292  0F1D                     	;# 
   293  0F1E                     	;# 
   294  0F1F                     	;# 
   295  0F20                     	;# 
   296  0F21                     	;# 
   297  0F22                     	;# 
   298  0F23                     	;# 
   299  0FE4                     	;# 
   300  0FE5                     	;# 
   301  0FE6                     	;# 
   302  0FE7                     	;# 
   303  0FE8                     	;# 
   304  0FE9                     	;# 
   305  0FEA                     	;# 
   306  0FEB                     	;# 
   307  0FED                     	;# 
   308  0FEE                     	;# 
   309  0FEF                     	;# 
   310  0000                     	;# 
   311  0001                     	;# 
   312  0002                     	;# 
   313  0003                     	;# 
   314  0004                     	;# 
   315  0005                     	;# 
   316  0006                     	;# 
   317  0007                     	;# 
   318  0008                     	;# 
   319  0009                     	;# 
   320  000A                     	;# 
   321  000B                     	;# 
   322  000C                     	;# 
   323  000E                     	;# 
   324  0010                     	;# 
   325  0011                     	;# 
   326  0012                     	;# 
   327  0013                     	;# 
   328  0014                     	;# 
   329  0015                     	;# 
   330  0015                     	;# 
   331  0016                     	;# 
   332  0016                     	;# 
   333  0017                     	;# 
   334  0018                     	;# 
   335  0019                     	;# 
   336  0019                     	;# 
   337  001A                     	;# 
   338  001B                     	;# 
   339  001C                     	;# 
   340  001D                     	;# 
   341  001E                     	;# 
   342  001F                     	;# 
   343  008C                     	;# 
   344  008E                     	;# 
   345  0090                     	;# 
   346  0091                     	;# 
   347  0092                     	;# 
   348  0093                     	;# 
   349  0094                     	;# 
   350  0097                     	;# 
   351  009B                     	;# 
   352  009B                     	;# 
   353  009C                     	;# 
   354  009D                     	;# 
   355  009E                     	;# 
   356  009F                     	;# 
   357  010C                     	;# 
   358  010E                     	;# 
   359  0111                     	;# 
   360  0112                     	;# 
   361  0113                     	;# 
   362  0114                     	;# 
   363  0115                     	;# 
   364  0116                     	;# 
   365  0117                     	;# 
   366  0118                     	;# 
   367  0119                     	;# 
   368  018C                     	;# 
   369  018E                     	;# 
   370  0197                     	;# 
   371  0199                     	;# 
   372  0199                     	;# 
   373  0199                     	;# 
   374  019A                     	;# 
   375  019A                     	;# 
   376  019A                     	;# 
   377  019B                     	;# 
   378  019B                     	;# 
   379  019B                     	;# 
   380  019B                     	;# 
   381  019B                     	;# 
   382  019C                     	;# 
   383  019C                     	;# 
   384  019C                     	;# 
   385  019D                     	;# 
   386  019D                     	;# 
   387  019D                     	;# 
   388  019E                     	;# 
   389  019E                     	;# 
   390  019E                     	;# 
   391  019F                     	;# 
   392  019F                     	;# 
   393  019F                     	;# 
   394  019F                     	;# 
   395  019F                     	;# 
   396  020C                     	;# 
   397  020E                     	;# 
   398  0211                     	;# 
   399  0211                     	;# 
   400  0212                     	;# 
   401  0212                     	;# 
   402  0213                     	;# 
   403  0213                     	;# 
   404  0214                     	;# 
   405  0214                     	;# 
   406  0215                     	;# 
   407  0215                     	;# 
   408  0215                     	;# 
   409  0215                     	;# 
   410  0216                     	;# 
   411  0216                     	;# 
   412  0217                     	;# 
   413  0217                     	;# 
   414  028C                     	;# 
   415  028E                     	;# 
   416  0291                     	;# 
   417  0291                     	;# 
   418  0292                     	;# 
   419  0293                     	;# 
   420  0294                     	;# 
   421  0295                     	;# 
   422  0295                     	;# 
   423  0296                     	;# 
   424  0297                     	;# 
   425  0298                     	;# 
   426  030C                     	;# 
   427  030E                     	;# 
   428  038C                     	;# 
   429  038E                     	;# 
   430  0391                     	;# 
   431  0392                     	;# 
   432  0393                     	;# 
   433  0397                     	;# 
   434  0398                     	;# 
   435  0399                     	;# 
   436  039A                     	;# 
   437  039C                     	;# 
   438  039D                     	;# 
   439  039E                     	;# 
   440  039F                     	;# 
   441  0498                     	;# 
   442  0498                     	;# 
   443  0499                     	;# 
   444  049A                     	;# 
   445  049B                     	;# 
   446  049B                     	;# 
   447  049C                     	;# 
   448  049D                     	;# 
   449  049E                     	;# 
   450  049F                     	;# 
   451  0617                     	;# 
   452  0618                     	;# 
   453  0619                     	;# 
   454  0619                     	;# 
   455  061A                     	;# 
   456  061B                     	;# 
   457  061C                     	;# 
   458  061C                     	;# 
   459  0691                     	;# 
   460  0692                     	;# 
   461  0693                     	;# 
   462  0694                     	;# 
   463  0695                     	;# 
   464  0696                     	;# 
   465  0697                     	;# 
   466  0698                     	;# 
   467  0699                     	;# 
   468  0891                     	;# 
   469  0891                     	;# 
   470  0891                     	;# 
   471  0891                     	;# 
   472  0891                     	;# 
   473  0891                     	;# 
   474  0892                     	;# 
   475  0892                     	;# 
   476  0892                     	;# 
   477  0893                     	;# 
   478  0893                     	;# 
   479  0893                     	;# 
   480  0893                     	;# 
   481  0893                     	;# 
   482  0893                     	;# 
   483  0894                     	;# 
   484  0894                     	;# 
   485  0894                     	;# 
   486  0895                     	;# 
   487  0895                     	;# 
   488  0895                     	;# 
   489  0896                     	;# 
   490  0896                     	;# 
   491  0896                     	;# 
   492  089B                     	;# 
   493  0911                     	;# 
   494  0912                     	;# 
   495  0913                     	;# 
   496  0914                     	;# 
   497  0915                     	;# 
   498  0916                     	;# 
   499  0918                     	;# 
   500  0919                     	;# 
   501  091A                     	;# 
   502  091B                     	;# 
   503  091C                     	;# 
   504  091D                     	;# 
   505  091E                     	;# 
   506  091F                     	;# 
   507  0E0F                     	;# 
   508  0E10                     	;# 
   509  0E11                     	;# 
   510  0E12                     	;# 
   511  0E13                     	;# 
   512  0E14                     	;# 
   513  0E15                     	;# 
   514  0E18                     	;# 
   515  0E1A                     	;# 
   516  0E1B                     	;# 
   517  0E1C                     	;# 
   518  0E20                     	;# 
   519  0E21                     	;# 
   520  0E22                     	;# 
   521  0E24                     	;# 
   522  0E25                     	;# 
   523  0E28                     	;# 
   524  0E29                     	;# 
   525  0E2A                     	;# 
   526  0E2B                     	;# 
   527  0E90                     	;# 
   528  0E91                     	;# 
   529  0E92                     	;# 
   530  0E94                     	;# 
   531  0E95                     	;# 
   532  0EA0                     	;# 
   533  0EA1                     	;# 
   534  0EA2                     	;# 
   535  0EA3                     	;# 
   536  0EA4                     	;# 
   537  0EA5                     	;# 
   538  0F0F                     	;# 
   539  0F10                     	;# 
   540  0F11                     	;# 
   541  0F12                     	;# 
   542  0F13                     	;# 
   543  0F14                     	;# 
   544  0F15                     	;# 
   545  0F16                     	;# 
   546  0F17                     	;# 
   547  0F18                     	;# 
   548  0F19                     	;# 
   549  0F1A                     	;# 
   550  0F1B                     	;# 
   551  0F1C                     	;# 
   552  0F1D                     	;# 
   553  0F1E                     	;# 
   554  0F1F                     	;# 
   555  0F20                     	;# 
   556  0F21                     	;# 
   557  0F22                     	;# 
   558  0F23                     	;# 
   559  0FE4                     	;# 
   560  0FE5                     	;# 
   561  0FE6                     	;# 
   562  0FE7                     	;# 
   563  0FE8                     	;# 
   564  0FE9                     	;# 
   565  0FEA                     	;# 
   566  0FEB                     	;# 
   567  0FED                     	;# 
   568  0FEE                     	;# 
   569  0FEF                     	;# 
   570  0000                     	;# 
   571  0001                     	;# 
   572  0002                     	;# 
   573  0003                     	;# 
   574  0004                     	;# 
   575  0005                     	;# 
   576  0006                     	;# 
   577  0007                     	;# 
   578  0008                     	;# 
   579  0009                     	;# 
   580  000A                     	;# 
   581  000B                     	;# 
   582  000C                     	;# 
   583  000E                     	;# 
   584  0010                     	;# 
   585  0011                     	;# 
   586  0012                     	;# 
   587  0013                     	;# 
   588  0014                     	;# 
   589  0015                     	;# 
   590  0015                     	;# 
   591  0016                     	;# 
   592  0016                     	;# 
   593  0017                     	;# 
   594  0018                     	;# 
   595  0019                     	;# 
   596  0019                     	;# 
   597  001A                     	;# 
   598  001B                     	;# 
   599  001C                     	;# 
   600  001D                     	;# 
   601  001E                     	;# 
   602  001F                     	;# 
   603  008C                     	;# 
   604  008E                     	;# 
   605  0090                     	;# 
   606  0091                     	;# 
   607  0092                     	;# 
   608  0093                     	;# 
   609  0094                     	;# 
   610  0097                     	;# 
   611  009B                     	;# 
   612  009B                     	;# 
   613  009C                     	;# 
   614  009D                     	;# 
   615  009E                     	;# 
   616  009F                     	;# 
   617  010C                     	;# 
   618  010E                     	;# 
   619  0111                     	;# 
   620  0112                     	;# 
   621  0113                     	;# 
   622  0114                     	;# 
   623  0115                     	;# 
   624  0116                     	;# 
   625  0117                     	;# 
   626  0118                     	;# 
   627  0119                     	;# 
   628  018C                     	;# 
   629  018E                     	;# 
   630  0197                     	;# 
   631  0199                     	;# 
   632  0199                     	;# 
   633  0199                     	;# 
   634  019A                     	;# 
   635  019A                     	;# 
   636  019A                     	;# 
   637  019B                     	;# 
   638  019B                     	;# 
   639  019B                     	;# 
   640  019B                     	;# 
   641  019B                     	;# 
   642  019C                     	;# 
   643  019C                     	;# 
   644  019C                     	;# 
   645  019D                     	;# 
   646  019D                     	;# 
   647  019D                     	;# 
   648  019E                     	;# 
   649  019E                     	;# 
   650  019E                     	;# 
   651  019F                     	;# 
   652  019F                     	;# 
   653  019F                     	;# 
   654  019F                     	;# 
   655  019F                     	;# 
   656  020C                     	;# 
   657  020E                     	;# 
   658  0211                     	;# 
   659  0211                     	;# 
   660  0212                     	;# 
   661  0212                     	;# 
   662  0213                     	;# 
   663  0213                     	;# 
   664  0214                     	;# 
   665  0214                     	;# 
   666  0215                     	;# 
   667  0215                     	;# 
   668  0215                     	;# 
   669  0215                     	;# 
   670  0216                     	;# 
   671  0216                     	;# 
   672  0217                     	;# 
   673  0217                     	;# 
   674  028C                     	;# 
   675  028E                     	;# 
   676  0291                     	;# 
   677  0291                     	;# 
   678  0292                     	;# 
   679  0293                     	;# 
   680  0294                     	;# 
   681  0295                     	;# 
   682  0295                     	;# 
   683  0296                     	;# 
   684  0297                     	;# 
   685  0298                     	;# 
   686  030C                     	;# 
   687  030E                     	;# 
   688  038C                     	;# 
   689  038E                     	;# 
   690  0391                     	;# 
   691  0392                     	;# 
   692  0393                     	;# 
   693  0397                     	;# 
   694  0398                     	;# 
   695  0399                     	;# 
   696  039A                     	;# 
   697  039C                     	;# 
   698  039D                     	;# 
   699  039E                     	;# 
   700  039F                     	;# 
   701  0498                     	;# 
   702  0498                     	;# 
   703  0499                     	;# 
   704  049A                     	;# 
   705  049B                     	;# 
   706  049B                     	;# 
   707  049C                     	;# 
   708  049D                     	;# 
   709  049E                     	;# 
   710  049F                     	;# 
   711  0617                     	;# 
   712  0618                     	;# 
   713  0619                     	;# 
   714  0619                     	;# 
   715  061A                     	;# 
   716  061B                     	;# 
   717  061C                     	;# 
   718  061C                     	;# 
   719  0691                     	;# 
   720  0692                     	;# 
   721  0693                     	;# 
   722  0694                     	;# 
   723  0695                     	;# 
   724  0696                     	;# 
   725  0697                     	;# 
   726  0698                     	;# 
   727  0699                     	;# 
   728  0891                     	;# 
   729  0891                     	;# 
   730  0891                     	;# 
   731  0891                     	;# 
   732  0891                     	;# 
   733  0891                     	;# 
   734  0892                     	;# 
   735  0892                     	;# 
   736  0892                     	;# 
   737  0893                     	;# 
   738  0893                     	;# 
   739  0893                     	;# 
   740  0893                     	;# 
   741  0893                     	;# 
   742  0893                     	;# 
   743  0894                     	;# 
   744  0894                     	;# 
   745  0894                     	;# 
   746  0895                     	;# 
   747  0895                     	;# 
   748  0895                     	;# 
   749  0896                     	;# 
   750  0896                     	;# 
   751  0896                     	;# 
   752  089B                     	;# 
   753  0911                     	;# 
   754  0912                     	;# 
   755  0913                     	;# 
   756  0914                     	;# 
   757  0915                     	;# 
   758  0916                     	;# 
   759  0918                     	;# 
   760  0919                     	;# 
   761  091A                     	;# 
   762  091B                     	;# 
   763  091C                     	;# 
   764  091D                     	;# 
   765  091E                     	;# 
   766  091F                     	;# 
   767  0E0F                     	;# 
   768  0E10                     	;# 
   769  0E11                     	;# 
   770  0E12                     	;# 
   771  0E13                     	;# 
   772  0E14                     	;# 
   773  0E15                     	;# 
   774  0E18                     	;# 
   775  0E1A                     	;# 
   776  0E1B                     	;# 
   777  0E1C                     	;# 
   778  0E20                     	;# 
   779  0E21                     	;# 
   780  0E22                     	;# 
   781  0E24                     	;# 
   782  0E25                     	;# 
   783  0E28                     	;# 
   784  0E29                     	;# 
   785  0E2A                     	;# 
   786  0E2B                     	;# 
   787  0E90                     	;# 
   788  0E91                     	;# 
   789  0E92                     	;# 
   790  0E94                     	;# 
   791  0E95                     	;# 
   792  0EA0                     	;# 
   793  0EA1                     	;# 
   794  0EA2                     	;# 
   795  0EA3                     	;# 
   796  0EA4                     	;# 
   797  0EA5                     	;# 
   798  0F0F                     	;# 
   799  0F10                     	;# 
   800  0F11                     	;# 
   801  0F12                     	;# 
   802  0F13                     	;# 
   803  0F14                     	;# 
   804  0F15                     	;# 
   805  0F16                     	;# 
   806  0F17                     	;# 
   807  0F18                     	;# 
   808  0F19                     	;# 
   809  0F1A                     	;# 
   810  0F1B                     	;# 
   811  0F1C                     	;# 
   812  0F1D                     	;# 
   813  0F1E                     	;# 
   814  0F1F                     	;# 
   815  0F20                     	;# 
   816  0F21                     	;# 
   817  0F22                     	;# 
   818  0F23                     	;# 
   819  0FE4                     	;# 
   820  0FE5                     	;# 
   821  0FE6                     	;# 
   822  0FE7                     	;# 
   823  0FE8                     	;# 
   824  0FE9                     	;# 
   825  0FEA                     	;# 
   826  0FEB                     	;# 
   827  0FED                     	;# 
   828  0FEE                     	;# 
   829  0FEF                     	;# 
   830  0000                     	;# 
   831  0001                     	;# 
   832  0002                     	;# 
   833  0003                     	;# 
   834  0004                     	;# 
   835  0005                     	;# 
   836  0006                     	;# 
   837  0007                     	;# 
   838  0008                     	;# 
   839  0009                     	;# 
   840  000A                     	;# 
   841  000B                     	;# 
   842  000C                     	;# 
   843  000E                     	;# 
   844  0010                     	;# 
   845  0011                     	;# 
   846  0012                     	;# 
   847  0013                     	;# 
   848  0014                     	;# 
   849  0015                     	;# 
   850  0015                     	;# 
   851  0016                     	;# 
   852  0016                     	;# 
   853  0017                     	;# 
   854  0018                     	;# 
   855  0019                     	;# 
   856  0019                     	;# 
   857  001A                     	;# 
   858  001B                     	;# 
   859  001C                     	;# 
   860  001D                     	;# 
   861  001E                     	;# 
   862  001F                     	;# 
   863  008C                     	;# 
   864  008E                     	;# 
   865  0090                     	;# 
   866  0091                     	;# 
   867  0092                     	;# 
   868  0093                     	;# 
   869  0094                     	;# 
   870  0097                     	;# 
   871  009B                     	;# 
   872  009B                     	;# 
   873  009C                     	;# 
   874  009D                     	;# 
   875  009E                     	;# 
   876  009F                     	;# 
   877  010C                     	;# 
   878  010E                     	;# 
   879  0111                     	;# 
   880  0112                     	;# 
   881  0113                     	;# 
   882  0114                     	;# 
   883  0115                     	;# 
   884  0116                     	;# 
   885  0117                     	;# 
   886  0118                     	;# 
   887  0119                     	;# 
   888  018C                     	;# 
   889  018E                     	;# 
   890  0197                     	;# 
   891  0199                     	;# 
   892  0199                     	;# 
   893  0199                     	;# 
   894  019A                     	;# 
   895  019A                     	;# 
   896  019A                     	;# 
   897  019B                     	;# 
   898  019B                     	;# 
   899  019B                     	;# 
   900  019B                     	;# 
   901  019B                     	;# 
   902  019C                     	;# 
   903  019C                     	;# 
   904  019C                     	;# 
   905  019D                     	;# 
   906  019D                     	;# 
   907  019D                     	;# 
   908  019E                     	;# 
   909  019E                     	;# 
   910  019E                     	;# 
   911  019F                     	;# 
   912  019F                     	;# 
   913  019F                     	;# 
   914  019F                     	;# 
   915  019F                     	;# 
   916  020C                     	;# 
   917  020E                     	;# 
   918  0211                     	;# 
   919  0211                     	;# 
   920  0212                     	;# 
   921  0212                     	;# 
   922  0213                     	;# 
   923  0213                     	;# 
   924  0214                     	;# 
   925  0214                     	;# 
   926  0215                     	;# 
   927  0215                     	;# 
   928  0215                     	;# 
   929  0215                     	;# 
   930  0216                     	;# 
   931  0216                     	;# 
   932  0217                     	;# 
   933  0217                     	;# 
   934  028C                     	;# 
   935  028E                     	;# 
   936  0291                     	;# 
   937  0291                     	;# 
   938  0292                     	;# 
   939  0293                     	;# 
   940  0294                     	;# 
   941  0295                     	;# 
   942  0295                     	;# 
   943  0296                     	;# 
   944  0297                     	;# 
   945  0298                     	;# 
   946  030C                     	;# 
   947  030E                     	;# 
   948  038C                     	;# 
   949  038E                     	;# 
   950  0391                     	;# 
   951  0392                     	;# 
   952  0393                     	;# 
   953  0397                     	;# 
   954  0398                     	;# 
   955  0399                     	;# 
   956  039A                     	;# 
   957  039C                     	;# 
   958  039D                     	;# 
   959  039E                     	;# 
   960  039F                     	;# 
   961  0498                     	;# 
   962  0498                     	;# 
   963  0499                     	;# 
   964  049A                     	;# 
   965  049B                     	;# 
   966  049B                     	;# 
   967  049C                     	;# 
   968  049D                     	;# 
   969  049E                     	;# 
   970  049F                     	;# 
   971  0617                     	;# 
   972  0618                     	;# 
   973  0619                     	;# 
   974  0619                     	;# 
   975  061A                     	;# 
   976  061B                     	;# 
   977  061C                     	;# 
   978  061C                     	;# 
   979  0691                     	;# 
   980  0692                     	;# 
   981  0693                     	;# 
   982  0694                     	;# 
   983  0695                     	;# 
   984  0696                     	;# 
   985  0697                     	;# 
   986  0698                     	;# 
   987  0699                     	;# 
   988  0891                     	;# 
   989  0891                     	;# 
   990  0891                     	;# 
   991  0891                     	;# 
   992  0891                     	;# 
   993  0891                     	;# 
   994  0892                     	;# 
   995  0892                     	;# 
   996  0892                     	;# 
   997  0893                     	;# 
   998  0893                     	;# 
   999  0893                     	;# 
  1000  0893                     	;# 
  1001  0893                     	;# 
  1002  0893                     	;# 
  1003  0894                     	;# 
  1004  0894                     	;# 
  1005  0894                     	;# 
  1006  0895                     	;# 
  1007  0895                     	;# 
  1008  0895                     	;# 
  1009  0896                     	;# 
  1010  0896                     	;# 
  1011  0896                     	;# 
  1012  089B                     	;# 
  1013  0911                     	;# 
  1014  0912                     	;# 
  1015  0913                     	;# 
  1016  0914                     	;# 
  1017  0915                     	;# 
  1018  0916                     	;# 
  1019  0918                     	;# 
  1020  0919                     	;# 
  1021  091A                     	;# 
  1022  091B                     	;# 
  1023  091C                     	;# 
  1024  091D                     	;# 
  1025  091E                     	;# 
  1026  091F                     	;# 
  1027  0E0F                     	;# 
  1028  0E10                     	;# 
  1029  0E11                     	;# 
  1030  0E12                     	;# 
  1031  0E13                     	;# 
  1032  0E14                     	;# 
  1033  0E15                     	;# 
  1034  0E18                     	;# 
  1035  0E1A                     	;# 
  1036  0E1B                     	;# 
  1037  0E1C                     	;# 
  1038  0E20                     	;# 
  1039  0E21                     	;# 
  1040  0E22                     	;# 
  1041  0E24                     	;# 
  1042  0E25                     	;# 
  1043  0E28                     	;# 
  1044  0E29                     	;# 
  1045  0E2A                     	;# 
  1046  0E2B                     	;# 
  1047  0E90                     	;# 
  1048  0E91                     	;# 
  1049  0E92                     	;# 
  1050  0E94                     	;# 
  1051  0E95                     	;# 
  1052  0EA0                     	;# 
  1053  0EA1                     	;# 
  1054  0EA2                     	;# 
  1055  0EA3                     	;# 
  1056  0EA4                     	;# 
  1057  0EA5                     	;# 
  1058  0F0F                     	;# 
  1059  0F10                     	;# 
  1060  0F11                     	;# 
  1061  0F12                     	;# 
  1062  0F13                     	;# 
  1063  0F14                     	;# 
  1064  0F15                     	;# 
  1065  0F16                     	;# 
  1066  0F17                     	;# 
  1067  0F18                     	;# 
  1068  0F19                     	;# 
  1069  0F1A                     	;# 
  1070  0F1B                     	;# 
  1071  0F1C                     	;# 
  1072  0F1D                     	;# 
  1073  0F1E                     	;# 
  1074  0F1F                     	;# 
  1075  0F20                     	;# 
  1076  0F21                     	;# 
  1077  0F22                     	;# 
  1078  0F23                     	;# 
  1079  0FE4                     	;# 
  1080  0FE5                     	;# 
  1081  0FE6                     	;# 
  1082  0FE7                     	;# 
  1083  0FE8                     	;# 
  1084  0FE9                     	;# 
  1085  0FEA                     	;# 
  1086  0FEB                     	;# 
  1087  0FED                     	;# 
  1088  0FEE                     	;# 
  1089  0FEF                     	;# 
  1090  0000                     	;# 
  1091  0001                     	;# 
  1092  0002                     	;# 
  1093  0003                     	;# 
  1094  0004                     	;# 
  1095  0005                     	;# 
  1096  0006                     	;# 
  1097  0007                     	;# 
  1098  0008                     	;# 
  1099  0009                     	;# 
  1100  000A                     	;# 
  1101  000B                     	;# 
  1102  000C                     	;# 
  1103  000E                     	;# 
  1104  0010                     	;# 
  1105  0011                     	;# 
  1106  0012                     	;# 
  1107  0013                     	;# 
  1108  0014                     	;# 
  1109  0015                     	;# 
  1110  0015                     	;# 
  1111  0016                     	;# 
  1112  0016                     	;# 
  1113  0017                     	;# 
  1114  0018                     	;# 
  1115  0019                     	;# 
  1116  0019                     	;# 
  1117  001A                     	;# 
  1118  001B                     	;# 
  1119  001C                     	;# 
  1120  001D                     	;# 
  1121  001E                     	;# 
  1122  001F                     	;# 
  1123  008C                     	;# 
  1124  008E                     	;# 
  1125  0090                     	;# 
  1126  0091                     	;# 
  1127  0092                     	;# 
  1128  0093                     	;# 
  1129  0094                     	;# 
  1130  0097                     	;# 
  1131  009B                     	;# 
  1132  009B                     	;# 
  1133  009C                     	;# 
  1134  009D                     	;# 
  1135  009E                     	;# 
  1136  009F                     	;# 
  1137  010C                     	;# 
  1138  010E                     	;# 
  1139  0111                     	;# 
  1140  0112                     	;# 
  1141  0113                     	;# 
  1142  0114                     	;# 
  1143  0115                     	;# 
  1144  0116                     	;# 
  1145  0117                     	;# 
  1146  0118                     	;# 
  1147  0119                     	;# 
  1148  018C                     	;# 
  1149  018E                     	;# 
  1150  0197                     	;# 
  1151  0199                     	;# 
  1152  0199                     	;# 
  1153  0199                     	;# 
  1154  019A                     	;# 
  1155  019A                     	;# 
  1156  019A                     	;# 
  1157  019B                     	;# 
  1158  019B                     	;# 
  1159  019B                     	;# 
  1160  019B                     	;# 
  1161  019B                     	;# 
  1162  019C                     	;# 
  1163  019C                     	;# 
  1164  019C                     	;# 
  1165  019D                     	;# 
  1166  019D                     	;# 
  1167  019D                     	;# 
  1168  019E                     	;# 
  1169  019E                     	;# 
  1170  019E                     	;# 
  1171  019F                     	;# 
  1172  019F                     	;# 
  1173  019F                     	;# 
  1174  019F                     	;# 
  1175  019F                     	;# 
  1176  020C                     	;# 
  1177  020E                     	;# 
  1178  0211                     	;# 
  1179  0211                     	;# 
  1180  0212                     	;# 
  1181  0212                     	;# 
  1182  0213                     	;# 
  1183  0213                     	;# 
  1184  0214                     	;# 
  1185  0214                     	;# 
  1186  0215                     	;# 
  1187  0215                     	;# 
  1188  0215                     	;# 
  1189  0215                     	;# 
  1190  0216                     	;# 
  1191  0216                     	;# 
  1192  0217                     	;# 
  1193  0217                     	;# 
  1194  028C                     	;# 
  1195  028E                     	;# 
  1196  0291                     	;# 
  1197  0291                     	;# 
  1198  0292                     	;# 
  1199  0293                     	;# 
  1200  0294                     	;# 
  1201  0295                     	;# 
  1202  0295                     	;# 
  1203  0296                     	;# 
  1204  0297                     	;# 
  1205  0298                     	;# 
  1206  030C                     	;# 
  1207  030E                     	;# 
  1208  038C                     	;# 
  1209  038E                     	;# 
  1210  0391                     	;# 
  1211  0392                     	;# 
  1212  0393                     	;# 
  1213  0397                     	;# 
  1214  0398                     	;# 
  1215  0399                     	;# 
  1216  039A                     	;# 
  1217  039C                     	;# 
  1218  039D                     	;# 
  1219  039E                     	;# 
  1220  039F                     	;# 
  1221  0498                     	;# 
  1222  0498                     	;# 
  1223  0499                     	;# 
  1224  049A                     	;# 
  1225  049B                     	;# 
  1226  049B                     	;# 
  1227  049C                     	;# 
  1228  049D                     	;# 
  1229  049E                     	;# 
  1230  049F                     	;# 
  1231  0617                     	;# 
  1232  0618                     	;# 
  1233  0619                     	;# 
  1234  0619                     	;# 
  1235  061A                     	;# 
  1236  061B                     	;# 
  1237  061C                     	;# 
  1238  061C                     	;# 
  1239  0691                     	;# 
  1240  0692                     	;# 
  1241  0693                     	;# 
  1242  0694                     	;# 
  1243  0695                     	;# 
  1244  0696                     	;# 
  1245  0697                     	;# 
  1246  0698                     	;# 
  1247  0699                     	;# 
  1248  0891                     	;# 
  1249  0891                     	;# 
  1250  0891                     	;# 
  1251  0891                     	;# 
  1252  0891                     	;# 
  1253  0891                     	;# 
  1254  0892                     	;# 
  1255  0892                     	;# 
  1256  0892                     	;# 
  1257  0893                     	;# 
  1258  0893                     	;# 
  1259  0893                     	;# 
  1260  0893                     	;# 
  1261  0893                     	;# 
  1262  0893                     	;# 
  1263  0894                     	;# 
  1264  0894                     	;# 
  1265  0894                     	;# 
  1266  0895                     	;# 
  1267  0895                     	;# 
  1268  0895                     	;# 
  1269  0896                     	;# 
  1270  0896                     	;# 
  1271  0896                     	;# 
  1272  089B                     	;# 
  1273  0911                     	;# 
  1274  0912                     	;# 
  1275  0913                     	;# 
  1276  0914                     	;# 
  1277  0915                     	;# 
  1278  0916                     	;# 
  1279  0918                     	;# 
  1280  0919                     	;# 
  1281  091A                     	;# 
  1282  091B                     	;# 
  1283  091C                     	;# 
  1284  091D                     	;# 
  1285  091E                     	;# 
  1286  091F                     	;# 
  1287  0E0F                     	;# 
  1288  0E10                     	;# 
  1289  0E11                     	;# 
  1290  0E12                     	;# 
  1291  0E13                     	;# 
  1292  0E14                     	;# 
  1293  0E15                     	;# 
  1294  0E18                     	;# 
  1295  0E1A                     	;# 
  1296  0E1B                     	;# 
  1297  0E1C                     	;# 
  1298  0E20                     	;# 
  1299  0E21                     	;# 
  1300  0E22                     	;# 
  1301  0E24                     	;# 
  1302  0E25                     	;# 
  1303  0E28                     	;# 
  1304  0E29                     	;# 
  1305  0E2A                     	;# 
  1306  0E2B                     	;# 
  1307  0E90                     	;# 
  1308  0E91                     	;# 
  1309  0E92                     	;# 
  1310  0E94                     	;# 
  1311  0E95                     	;# 
  1312  0EA0                     	;# 
  1313  0EA1                     	;# 
  1314  0EA2                     	;# 
  1315  0EA3                     	;# 
  1316  0EA4                     	;# 
  1317  0EA5                     	;# 
  1318  0F0F                     	;# 
  1319  0F10                     	;# 
  1320  0F11                     	;# 
  1321  0F12                     	;# 
  1322  0F13                     	;# 
  1323  0F14                     	;# 
  1324  0F15                     	;# 
  1325  0F16                     	;# 
  1326  0F17                     	;# 
  1327  0F18                     	;# 
  1328  0F19                     	;# 
  1329  0F1A                     	;# 
  1330  0F1B                     	;# 
  1331  0F1C                     	;# 
  1332  0F1D                     	;# 
  1333  0F1E                     	;# 
  1334  0F1F                     	;# 
  1335  0F20                     	;# 
  1336  0F21                     	;# 
  1337  0F22                     	;# 
  1338  0F23                     	;# 
  1339  0FE4                     	;# 
  1340  0FE5                     	;# 
  1341  0FE6                     	;# 
  1342  0FE7                     	;# 
  1343  0FE8                     	;# 
  1344  0FE9                     	;# 
  1345  0FEA                     	;# 
  1346  0FEB                     	;# 
  1347  0FED                     	;# 
  1348  0FEE                     	;# 
  1349  0FEF                     	;# 
  1350  0000                     	;# 
  1351  0001                     	;# 
  1352  0002                     	;# 
  1353  0003                     	;# 
  1354  0004                     	;# 
  1355  0005                     	;# 
  1356  0006                     	;# 
  1357  0007                     	;# 
  1358  0008                     	;# 
  1359  0009                     	;# 
  1360  000A                     	;# 
  1361  000B                     	;# 
  1362  000C                     	;# 
  1363  000E                     	;# 
  1364  0010                     	;# 
  1365  0011                     	;# 
  1366  0012                     	;# 
  1367  0013                     	;# 
  1368  0014                     	;# 
  1369  0015                     	;# 
  1370  0015                     	;# 
  1371  0016                     	;# 
  1372  0016                     	;# 
  1373  0017                     	;# 
  1374  0018                     	;# 
  1375  0019                     	;# 
  1376  0019                     	;# 
  1377  001A                     	;# 
  1378  001B                     	;# 
  1379  001C                     	;# 
  1380  001D                     	;# 
  1381  001E                     	;# 
  1382  001F                     	;# 
  1383  008C                     	;# 
  1384  008E                     	;# 
  1385  0090                     	;# 
  1386  0091                     	;# 
  1387  0092                     	;# 
  1388  0093                     	;# 
  1389  0094                     	;# 
  1390  0097                     	;# 
  1391  009B                     	;# 
  1392  009B                     	;# 
  1393  009C                     	;# 
  1394  009D                     	;# 
  1395  009E                     	;# 
  1396  009F                     	;# 
  1397  010C                     	;# 
  1398  010E                     	;# 
  1399  0111                     	;# 
  1400  0112                     	;# 
  1401  0113                     	;# 
  1402  0114                     	;# 
  1403  0115                     	;# 
  1404  0116                     	;# 
  1405  0117                     	;# 
  1406  0118                     	;# 
  1407  0119                     	;# 
  1408  018C                     	;# 
  1409  018E                     	;# 
  1410  0197                     	;# 
  1411  0199                     	;# 
  1412  0199                     	;# 
  1413  0199                     	;# 
  1414  019A                     	;# 
  1415  019A                     	;# 
  1416  019A                     	;# 
  1417  019B                     	;# 
  1418  019B                     	;# 
  1419  019B                     	;# 
  1420  019B                     	;# 
  1421  019B                     	;# 
  1422  019C                     	;# 
  1423  019C                     	;# 
  1424  019C                     	;# 
  1425  019D                     	;# 
  1426  019D                     	;# 
  1427  019D                     	;# 
  1428  019E                     	;# 
  1429  019E                     	;# 
  1430  019E                     	;# 
  1431  019F                     	;# 
  1432  019F                     	;# 
  1433  019F                     	;# 
  1434  019F                     	;# 
  1435  019F                     	;# 
  1436  020C                     	;# 
  1437  020E                     	;# 
  1438  0211                     	;# 
  1439  0211                     	;# 
  1440  0212                     	;# 
  1441  0212                     	;# 
  1442  0213                     	;# 
  1443  0213                     	;# 
  1444  0214                     	;# 
  1445  0214                     	;# 
  1446  0215                     	;# 
  1447  0215                     	;# 
  1448  0215                     	;# 
  1449  0215                     	;# 
  1450  0216                     	;# 
  1451  0216                     	;# 
  1452  0217                     	;# 
  1453  0217                     	;# 
  1454  028C                     	;# 
  1455  028E                     	;# 
  1456  0291                     	;# 
  1457  0291                     	;# 
  1458  0292                     	;# 
  1459  0293                     	;# 
  1460  0294                     	;# 
  1461  0295                     	;# 
  1462  0295                     	;# 
  1463  0296                     	;# 
  1464  0297                     	;# 
  1465  0298                     	;# 
  1466  030C                     	;# 
  1467  030E                     	;# 
  1468  038C                     	;# 
  1469  038E                     	;# 
  1470  0391                     	;# 
  1471  0392                     	;# 
  1472  0393                     	;# 
  1473  0397                     	;# 
  1474  0398                     	;# 
  1475  0399                     	;# 
  1476  039A                     	;# 
  1477  039C                     	;# 
  1478  039D                     	;# 
  1479  039E                     	;# 
  1480  039F                     	;# 
  1481  0498                     	;# 
  1482  0498                     	;# 
  1483  0499                     	;# 
  1484  049A                     	;# 
  1485  049B                     	;# 
  1486  049B                     	;# 
  1487  049C                     	;# 
  1488  049D                     	;# 
  1489  049E                     	;# 
  1490  049F                     	;# 
  1491  0617                     	;# 
  1492  0618                     	;# 
  1493  0619                     	;# 
  1494  0619                     	;# 
  1495  061A                     	;# 
  1496  061B                     	;# 
  1497  061C                     	;# 
  1498  061C                     	;# 
  1499  0691                     	;# 
  1500  0692                     	;# 
  1501  0693                     	;# 
  1502  0694                     	;# 
  1503  0695                     	;# 
  1504  0696                     	;# 
  1505  0697                     	;# 
  1506  0698                     	;# 
  1507  0699                     	;# 
  1508  0891                     	;# 
  1509  0891                     	;# 
  1510  0891                     	;# 
  1511  0891                     	;# 
  1512  0891                     	;# 
  1513  0891                     	;# 
  1514  0892                     	;# 
  1515  0892                     	;# 
  1516  0892                     	;# 
  1517  0893                     	;# 
  1518  0893                     	;# 
  1519  0893                     	;# 
  1520  0893                     	;# 
  1521  0893                     	;# 
  1522  0893                     	;# 
  1523  0894                     	;# 
  1524  0894                     	;# 
  1525  0894                     	;# 
  1526  0895                     	;# 
  1527  0895                     	;# 
  1528  0895                     	;# 
  1529  0896                     	;# 
  1530  0896                     	;# 
  1531  0896                     	;# 
  1532  089B                     	;# 
  1533  0911                     	;# 
  1534  0912                     	;# 
  1535  0913                     	;# 
  1536  0914                     	;# 
  1537  0915                     	;# 
  1538  0916                     	;# 
  1539  0918                     	;# 
  1540  0919                     	;# 
  1541  091A                     	;# 
  1542  091B                     	;# 
  1543  091C                     	;# 
  1544  091D                     	;# 
  1545  091E                     	;# 
  1546  091F                     	;# 
  1547  0E0F                     	;# 
  1548  0E10                     	;# 
  1549  0E11                     	;# 
  1550  0E12                     	;# 
  1551  0E13                     	;# 
  1552  0E14                     	;# 
  1553  0E15                     	;# 
  1554  0E18                     	;# 
  1555  0E1A                     	;# 
  1556  0E1B                     	;# 
  1557  0E1C                     	;# 
  1558  0E20                     	;# 
  1559  0E21                     	;# 
  1560  0E22                     	;# 
  1561  0E24                     	;# 
  1562  0E25                     	;# 
  1563  0E28                     	;# 
  1564  0E29                     	;# 
  1565  0E2A                     	;# 
  1566  0E2B                     	;# 
  1567  0E90                     	;# 
  1568  0E91                     	;# 
  1569  0E92                     	;# 
  1570  0E94                     	;# 
  1571  0E95                     	;# 
  1572  0EA0                     	;# 
  1573  0EA1                     	;# 
  1574  0EA2                     	;# 
  1575  0EA3                     	;# 
  1576  0EA4                     	;# 
  1577  0EA5                     	;# 
  1578  0F0F                     	;# 
  1579  0F10                     	;# 
  1580  0F11                     	;# 
  1581  0F12                     	;# 
  1582  0F13                     	;# 
  1583  0F14                     	;# 
  1584  0F15                     	;# 
  1585  0F16                     	;# 
  1586  0F17                     	;# 
  1587  0F18                     	;# 
  1588  0F19                     	;# 
  1589  0F1A                     	;# 
  1590  0F1B                     	;# 
  1591  0F1C                     	;# 
  1592  0F1D                     	;# 
  1593  0F1E                     	;# 
  1594  0F1F                     	;# 
  1595  0F20                     	;# 
  1596  0F21                     	;# 
  1597  0F22                     	;# 
  1598  0F23                     	;# 
  1599  0FE4                     	;# 
  1600  0FE5                     	;# 
  1601  0FE6                     	;# 
  1602  0FE7                     	;# 
  1603  0FE8                     	;# 
  1604  0FE9                     	;# 
  1605  0FEA                     	;# 
  1606  0FEB                     	;# 
  1607  0FED                     	;# 
  1608  0FEE                     	;# 
  1609  0FEF                     	;# 
  1610  0011                     _PIR1bits	set	17
  1611  005F                     _GIE	set	95
  1612  0097                     _WDTCON	set	151
  1613  008E                     _TRISC	set	142
  1614  008C                     _TRISA	set	140
  1615  010E                     _LATC	set	270
  1616  010C                     _LATA	set	268
  1617  019A                     _TX1REG	set	410
  1618  0199                     _RC1REG	set	409
  1619  019D                     _RC1STAbits	set	413
  1620  019C                     _SP1BRGH	set	412
  1621  019B                     _SP1BRGL	set	411
  1622  019E                     _TX1STA	set	414
  1623  019D                     _RC1STA	set	413
  1624  019F                     _BAUD1CON	set	415
  1625  018C                     _ANSELA	set	396
  1626  018E                     _ANSELC	set	398
  1627  020E                     _WPUC	set	526
  1628  020C                     _WPUA	set	524
  1629  028E                     _ODCONC	set	654
  1630  028C                     _ODCONA	set	652
  1631  091E                     _OSCTUNE	set	2334
  1632  091F                     _OSCFRQ	set	2335
  1633  091D                     _OSCEN	set	2333
  1634  091B                     _OSCCON3	set	2331
  1635  0919                     _OSCCON1	set	2329
  1636  48E0                     _PLLR	set	18656
  1637  0E2A                     _CLCIN2PPSbits	set	3626
  1638  0E28                     _CLCIN0PPSbits	set	3624
  1639  0E24                     _RXPPSbits	set	3620
  1640  0E29                     _CLCIN1PPSbits	set	3625
  1641  0E0F                     _PPSLOCKbits	set	3599
  1642  0E0F                     _PPSLOCK	set	3599
  1643  0EA5                     _RC5PPSbits	set	3749
  1644  0EA3                     _RC3PPSbits	set	3747
  1645  0F1A                     _CLC2CONbits	set	3866
  1646  0F1A                     _CLC2CON	set	3866
  1647  0F23                     _CLC2GLS3	set	3875
  1648  0F22                     _CLC2GLS2	set	3874
  1649  0F21                     _CLC2GLS1	set	3873
  1650  0F20                     _CLC2GLS0	set	3872
  1651  0F1F                     _CLC2SEL3	set	3871
  1652  0F1E                     _CLC2SEL2	set	3870
  1653  0F1D                     _CLC2SEL1	set	3869
  1654  0F1C                     _CLC2SEL0	set	3868
  1655  0F1B                     _CLC2POL	set	3867
  1656  0F10                     _CLC1CONbits	set	3856
  1657  0F10                     _CLC1CON	set	3856
  1658  0F19                     _CLC1GLS3	set	3865
  1659  0F18                     _CLC1GLS2	set	3864
  1660  0F17                     _CLC1GLS1	set	3863
  1661  0F16                     _CLC1GLS0	set	3862
  1662  0F15                     _CLC1SEL3	set	3861
  1663  0F14                     _CLC1SEL2	set	3860
  1664  0F13                     _CLC1SEL1	set	3859
  1665  0F12                     _CLC1SEL0	set	3858
  1666  0F11                     _CLC1POL	set	3857
  1667                           
  1668                           ; #config settings
  1669  0000                     
  1670                           	psect	cinit
  1671  07FE                     start_initialization:	
  1672  07FE                     __initialization:	
  1673  07FE                     end_of_initialization:	
  1674                           ;End of C runtime variable initialization code
  1675                           
  1676  07FE                     __end_of__initialization:	
  1677  07FE  0020               	movlb	0
  1678  07FF  2F7C               	ljmp	_main	;jump to C main() function
  1679                           
  1680                           	psect	cstackCOMMON
  1681  0070                     __pcstackCOMMON:	
  1682  0070                     ?_OSCILLATOR_Initialize:	
  1683  0070                     ??_OSCILLATOR_Initialize:	
  1684                           ; 1 bytes @ 0x0
  1685                           
  1686  0070                     ?_WDT_Initialize:	
  1687                           ; 1 bytes @ 0x0
  1688                           
  1689  0070                     ??_WDT_Initialize:	
  1690                           ; 1 bytes @ 0x0
  1691                           
  1692  0070                     ?_CLC2_Initialize:	
  1693                           ; 1 bytes @ 0x0
  1694                           
  1695  0070                     ??_CLC2_Initialize:	
  1696                           ; 1 bytes @ 0x0
  1697                           
  1698  0070                     ?_EUSART_Initialize:	
  1699                           ; 1 bytes @ 0x0
  1700                           
  1701  0070                     ??_EUSART_Initialize:	
  1702                           ; 1 bytes @ 0x0
  1703                           
  1704  0070                     ?_PIN_MANAGER_Initialize:	
  1705                           ; 1 bytes @ 0x0
  1706                           
  1707  0070                     ??_PIN_MANAGER_Initialize:	
  1708                           ; 1 bytes @ 0x0
  1709                           
  1710  0070                     ?_CLC1_Initialize:	
  1711                           ; 1 bytes @ 0x0
  1712                           
  1713  0070                     ??_CLC1_Initialize:	
  1714                           ; 1 bytes @ 0x0
  1715                           
  1716  0070                     ?_SYSTEM_Initialize:	
  1717                           ; 1 bytes @ 0x0
  1718                           
  1719  0070                     ?_main:	
  1720                           ; 1 bytes @ 0x0
  1721                           
  1722  0070                     PIN_MANAGER_Initialize@state:	
  1723                           ; 2 bytes @ 0x0
  1724                           
  1725                           
  1726                           ; 1 bytes @ 0x0
  1727  0070                     	ds	1
  1728  0071                     ??_SYSTEM_Initialize:	
  1729  0071                     ??_main:	
  1730                           ; 1 bytes @ 0x1
  1731                           
  1732                           
  1733                           	psect	maintext
  1734  077C                     __pmaintext:	
  1735                           ; 1 bytes @ 0x1
  1736 ;;
  1737 ;;Main: autosize = 0, tempsize = 0, incstack = 0, save=0
  1738 ;;
  1739 ;; *************** function _main *****************
  1740 ;; Defined at:
  1741 ;;		line 6 in file "main.c"
  1742 ;; Parameters:    Size  Location     Type
  1743 ;;		None
  1744 ;; Auto vars:     Size  Location     Type
  1745 ;;		None
  1746 ;; Return value:  Size  Location     Type
  1747 ;;                  2  178[None  ] int 
  1748 ;; Registers used:
  1749 ;;		wreg, status,2, status,0, pclath, cstack
  1750 ;; Tracked objects:
  1751 ;;		On entry : B1F/0
  1752 ;;		On exit  : 0/0
  1753 ;;		Unchanged: 0/0
  1754 ;; Data sizes:     COMMON   BANK0   BANK1   BANK2
  1755 ;;      Params:         0       0       0       0
  1756 ;;      Locals:         0       0       0       0
  1757 ;;      Temps:          0       0       0       0
  1758 ;;      Totals:         0       0       0       0
  1759 ;;Total ram usage:        0 bytes
  1760 ;; Hardware stack levels required when called:    2
  1761 ;; This function calls:
  1762 ;;		_SYSTEM_Initialize
  1763 ;; This function is called by:
  1764 ;;		Startup code after reset
  1765 ;; This function uses a non-reentrant model
  1766 ;;
  1767                           
  1768                           
  1769                           ;psect for function _main
  1770  077C                     _main:	
  1771                           
  1772                           ;main.c: 8: SYSTEM_Initialize();
  1773                           
  1774                           ;incstack = 0
  1775                           ; Regs used in _main: [wreg+status,2+status,0+pclath+cstack]
  1776  077C  2782               	fcall	_SYSTEM_Initialize
  1777  077D                     l179:	
  1778                           ;main.c: 11: while (1) {
  1779                           
  1780  077D  2F7D               	goto	l179
  1781  077E                     __end_of_main:	
  1782                           ;main.c: 18: }
  1783                           ;main.c: 20: return 0;
  1784                           ;	Return value of _main is never used
  1785                           
  1786                           
  1787                           	psect	text1
  1788  0782                     __ptext1:	
  1789 ;; *************** function _SYSTEM_Initialize *****************
  1790 ;; Defined at:
  1791 ;;		line 76 in file "mcc_generated_files/mcc.c"
  1792 ;; Parameters:    Size  Location     Type
  1793 ;;		None
  1794 ;; Auto vars:     Size  Location     Type
  1795 ;;		None
  1796 ;; Return value:  Size  Location     Type
  1797 ;;                  1    wreg      void 
  1798 ;; Registers used:
  1799 ;;		wreg, status,2, status,0, pclath, cstack
  1800 ;; Tracked objects:
  1801 ;;		On entry : 0/0
  1802 ;;		On exit  : 0/0
  1803 ;;		Unchanged: 0/0
  1804 ;; Data sizes:     COMMON   BANK0   BANK1   BANK2
  1805 ;;      Params:         0       0       0       0
  1806 ;;      Locals:         0       0       0       0
  1807 ;;      Temps:          0       0       0       0
  1808 ;;      Totals:         0       0       0       0
  1809 ;;Total ram usage:        0 bytes
  1810 ;; Hardware stack levels used:    1
  1811 ;; Hardware stack levels required when called:    1
  1812 ;; This function calls:
  1813 ;;		_CLC1_Initialize
  1814 ;;		_CLC2_Initialize
  1815 ;;		_EUSART_Initialize
  1816 ;;		_OSCILLATOR_Initialize
  1817 ;;		_PIN_MANAGER_Initialize
  1818 ;;		_WDT_Initialize
  1819 ;; This function is called by:
  1820 ;;		_main
  1821 ;; This function uses a non-reentrant model
  1822 ;;
  1823                           
  1824                           
  1825                           ;psect for function _SYSTEM_Initialize
  1826  0782                     _SYSTEM_Initialize:	
  1827                           
  1828                           ;mcc.c: 79: PIN_MANAGER_Initialize();
  1829                           
  1830                           ;incstack = 0
  1831                           ; Regs used in _SYSTEM_Initialize: [wreg+status,2+status,0+pclath+cstack]
  1832  0782  27BF               	fcall	_PIN_MANAGER_Initialize
  1833                           
  1834                           ;mcc.c: 80: OSCILLATOR_Initialize();
  1835  0783  2794               	fcall	_OSCILLATOR_Initialize
  1836                           
  1837                           ;mcc.c: 81: WDT_Initialize();
  1838  0784  277E               	fcall	_WDT_Initialize
  1839                           
  1840                           ;mcc.c: 82: CLC2_Initialize();
  1841  0785  27AF               	fcall	_CLC2_Initialize
  1842                           
  1843                           ;mcc.c: 83: CLC1_Initialize();
  1844  0786  279F               	fcall	_CLC1_Initialize
  1845                           
  1846                           ;mcc.c: 84: EUSART_Initialize();
  1847  0787  2789               	fcall	_EUSART_Initialize
  1848  0788  0008               	return
  1849  0789                     __end_of_SYSTEM_Initialize:	
  1850                           
  1851                           	psect	text2
  1852  077E                     __ptext2:	
  1853 ;; *************** function _WDT_Initialize *****************
  1854 ;; Defined at:
  1855 ;;		line 105 in file "mcc_generated_files/mcc.c"
  1856 ;; Parameters:    Size  Location     Type
  1857 ;;		None
  1858 ;; Auto vars:     Size  Location     Type
  1859 ;;		None
  1860 ;; Return value:  Size  Location     Type
  1861 ;;                  1    wreg      void 
  1862 ;; Registers used:
  1863 ;;		wreg
  1864 ;; Tracked objects:
  1865 ;;		On entry : 0/0
  1866 ;;		On exit  : 0/0
  1867 ;;		Unchanged: 0/0
  1868 ;; Data sizes:     COMMON   BANK0   BANK1   BANK2
  1869 ;;      Params:         0       0       0       0
  1870 ;;      Locals:         0       0       0       0
  1871 ;;      Temps:          0       0       0       0
  1872 ;;      Totals:         0       0       0       0
  1873 ;;Total ram usage:        0 bytes
  1874 ;; Hardware stack levels used:    1
  1875 ;; This function calls:
  1876 ;;		Nothing
  1877 ;; This function is called by:
  1878 ;;		_SYSTEM_Initialize
  1879 ;; This function uses a non-reentrant model
  1880 ;;
  1881                           
  1882                           
  1883                           ;psect for function _WDT_Initialize
  1884  077E                     _WDT_Initialize:	
  1885                           
  1886                           ;mcc.c: 108: WDTCON = 0x16;
  1887                           
  1888                           ;incstack = 0
  1889                           ; Regs used in _WDT_Initialize: [wreg]
  1890  077E  3016               	movlw	22
  1891  077F  0021               	movlb	1	; select bank1
  1892  0780  0097               	movwf	23	;volatile
  1893  0781  0008               	return
  1894  0782                     __end_of_WDT_Initialize:	
  1895                           
  1896                           	psect	text3
  1897  07BF                     __ptext3:	
  1898 ;; *************** function _PIN_MANAGER_Initialize *****************
  1899 ;; Defined at:
  1900 ;;		line 51 in file "mcc_generated_files/pin_manager.c"
  1901 ;; Parameters:    Size  Location     Type
  1902 ;;		None
  1903 ;; Auto vars:     Size  Location     Type
  1904 ;;  state           1    0[COMMON] unsigned char 
  1905 ;; Return value:  Size  Location     Type
  1906 ;;                  1    wreg      void 
  1907 ;; Registers used:
  1908 ;;		wreg, status,2, status,0
  1909 ;; Tracked objects:
  1910 ;;		On entry : 0/0
  1911 ;;		On exit  : 0/0
  1912 ;;		Unchanged: 0/0
  1913 ;; Data sizes:     COMMON   BANK0   BANK1   BANK2
  1914 ;;      Params:         0       0       0       0
  1915 ;;      Locals:         1       0       0       0
  1916 ;;      Temps:          0       0       0       0
  1917 ;;      Totals:         1       0       0       0
  1918 ;;Total ram usage:        1 bytes
  1919 ;; Hardware stack levels used:    1
  1920 ;; This function calls:
  1921 ;;		Nothing
  1922 ;; This function is called by:
  1923 ;;		_SYSTEM_Initialize
  1924 ;; This function uses a non-reentrant model
  1925 ;;
  1926                           
  1927                           
  1928                           ;psect for function _PIN_MANAGER_Initialize
  1929  07BF                     _PIN_MANAGER_Initialize:	
  1930                           
  1931                           ;pin_manager.c: 56: LATA = 0x00;
  1932                           
  1933                           ;incstack = 0
  1934                           ; Regs used in _PIN_MANAGER_Initialize: [wreg+status,2+status,0]
  1935  07BF  0022               	movlb	2	; select bank2
  1936  07C0  018C               	clrf	12	;volatile
  1937                           
  1938                           ;pin_manager.c: 57: LATC = 0x00;
  1939  07C1  018E               	clrf	14	;volatile
  1940                           
  1941                           ;pin_manager.c: 62: TRISA = 0x37;
  1942  07C2  3037               	movlw	55
  1943  07C3  0021               	movlb	1	; select bank1
  1944  07C4  008C               	movwf	12	;volatile
  1945                           
  1946                           ;pin_manager.c: 63: TRISC = 0x10;
  1947  07C5  3010               	movlw	16
  1948  07C6  008E               	movwf	14	;volatile
  1949                           
  1950                           ;pin_manager.c: 68: ANSELC = 0x00;
  1951  07C7  0023               	movlb	3	; select bank3
  1952  07C8  018E               	clrf	14	;volatile
  1953                           
  1954                           ;pin_manager.c: 69: ANSELA = 0x00;
  1955  07C9  018C               	clrf	12	;volatile
  1956                           
  1957                           ;pin_manager.c: 74: WPUA = 0x00;
  1958  07CA  0024               	movlb	4	; select bank4
  1959  07CB  018C               	clrf	12	;volatile
  1960                           
  1961                           ;pin_manager.c: 75: WPUC = 0x00;
  1962  07CC  018E               	clrf	14	;volatile
  1963                           
  1964                           ;pin_manager.c: 80: ODCONA = 0x00;
  1965  07CD  0025               	movlb	5	; select bank5
  1966  07CE  018C               	clrf	12	;volatile
  1967                           
  1968                           ;pin_manager.c: 81: ODCONC = 0x00;
  1969  07CF  018E               	clrf	14	;volatile
  1970                           
  1971                           ;pin_manager.c: 88: bool state = GIE;
  1972  07D0  3000               	movlw	0
  1973  07D1  1B8B               	btfsc	11,7	;volatile
  1974  07D2  3001               	movlw	1
  1975  07D3  00F0               	movwf	PIN_MANAGER_Initialize@state
  1976                           
  1977                           ;pin_manager.c: 89: GIE = 0;
  1978  07D4  138B               	bcf	11,7	;volatile
  1979                           
  1980                           ;pin_manager.c: 90: PPSLOCK = 0x55;
  1981  07D5  3055               	movlw	85
  1982  07D6  003C               	movlb	28	; select bank28
  1983  07D7  008F               	movwf	15	;volatile
  1984                           
  1985                           ;pin_manager.c: 91: PPSLOCK = 0xAA;
  1986  07D8  30AA               	movlw	170
  1987  07D9  008F               	movwf	15	;volatile
  1988                           
  1989                           ;pin_manager.c: 92: PPSLOCKbits.PPSLOCKED = 0x00;
  1990  07DA  100F               	bcf	15,0	;volatile
  1991                           
  1992                           ;pin_manager.c: 94: CLCIN1PPSbits.CLCIN1PPS = 0x00;
  1993  07DB  30E0               	movlw	-32
  1994  07DC  05A9               	andwf	41,f	;volatile
  1995                           
  1996                           ;pin_manager.c: 95: RXPPSbits.RXPPS = 0x14;
  1997  07DD  0824               	movf	36,w	;volatile
  1998  07DE  39E0               	andlw	-32
  1999  07DF  3814               	iorlw	20
  2000  07E0  00A4               	movwf	36	;volatile
  2001                           
  2002                           ;pin_manager.c: 96: CLCIN0PPSbits.CLCIN0PPS = 0x02;
  2003  07E1  0828               	movf	40,w	;volatile
  2004  07E2  39E0               	andlw	-32
  2005  07E3  3802               	iorlw	2
  2006  07E4  00A8               	movwf	40	;volatile
  2007                           
  2008                           ;pin_manager.c: 97: CLCIN2PPSbits.CLCIN2PPS = 0x01;
  2009  07E5  082A               	movf	42,w	;volatile
  2010  07E6  39E0               	andlw	-32
  2011  07E7  3801               	iorlw	1
  2012  07E8  00AA               	movwf	42	;volatile
  2013                           
  2014                           ;pin_manager.c: 98: RC3PPSbits.RC3PPS = 0x05;
  2015  07E9  003D               	movlb	29	; select bank29
  2016  07EA  0823               	movf	35,w	;volatile
  2017  07EB  39E0               	andlw	-32
  2018  07EC  3805               	iorlw	5
  2019  07ED  00A3               	movwf	35	;volatile
  2020                           
  2021                           ;pin_manager.c: 99: RC5PPSbits.RC5PPS = 0x04;
  2022  07EE  0825               	movf	37,w	;volatile
  2023  07EF  39E0               	andlw	-32
  2024  07F0  3804               	iorlw	4
  2025  07F1  00A5               	movwf	37	;volatile
  2026                           
  2027                           ;pin_manager.c: 101: PPSLOCK = 0x55;
  2028  07F2  3055               	movlw	85
  2029  07F3  003C               	movlb	28	; select bank28
  2030  07F4  008F               	movwf	15	;volatile
  2031                           
  2032                           ;pin_manager.c: 102: PPSLOCK = 0xAA;
  2033  07F5  30AA               	movlw	170
  2034  07F6  008F               	movwf	15	;volatile
  2035                           
  2036                           ;pin_manager.c: 103: PPSLOCKbits.PPSLOCKED = 0x01;
  2037  07F7  140F               	bsf	15,0	;volatile
  2038                           
  2039                           ;pin_manager.c: 105: GIE = state;
  2040  07F8  1C70               	btfss	PIN_MANAGER_Initialize@state,0
  2041  07F9  2FFC               	goto	u10
  2042  07FA  178B               	bsf	11,7	;volatile
  2043  07FB  0008               	return
  2044  07FC                     u10:	
  2045  07FC  138B               	bcf	11,7	;volatile
  2046  07FD  0008               	return
  2047  07FE                     __end_of_PIN_MANAGER_Initialize:	
  2048                           
  2049                           	psect	text4
  2050  0794                     __ptext4:	
  2051 ;; *************** function _OSCILLATOR_Initialize *****************
  2052 ;; Defined at:
  2053 ;;		line 87 in file "mcc_generated_files/mcc.c"
  2054 ;; Parameters:    Size  Location     Type
  2055 ;;		None
  2056 ;; Auto vars:     Size  Location     Type
  2057 ;;		None
  2058 ;; Return value:  Size  Location     Type
  2059 ;;                  1    wreg      void 
  2060 ;; Registers used:
  2061 ;;		wreg, status,2
  2062 ;; Tracked objects:
  2063 ;;		On entry : 0/0
  2064 ;;		On exit  : 0/0
  2065 ;;		Unchanged: 0/0
  2066 ;; Data sizes:     COMMON   BANK0   BANK1   BANK2
  2067 ;;      Params:         0       0       0       0
  2068 ;;      Locals:         0       0       0       0
  2069 ;;      Temps:          0       0       0       0
  2070 ;;      Totals:         0       0       0       0
  2071 ;;Total ram usage:        0 bytes
  2072 ;; Hardware stack levels used:    1
  2073 ;; This function calls:
  2074 ;;		Nothing
  2075 ;; This function is called by:
  2076 ;;		_SYSTEM_Initialize
  2077 ;; This function uses a non-reentrant model
  2078 ;;
  2079                           
  2080                           
  2081                           ;psect for function _OSCILLATOR_Initialize
  2082  0794                     _OSCILLATOR_Initialize:	
  2083                           
  2084                           ;mcc.c: 90: OSCCON1 = 0x10;
  2085                           
  2086                           ;incstack = 0
  2087                           ; Regs used in _OSCILLATOR_Initialize: [wreg+status,2]
  2088  0794  3010               	movlw	16
  2089  0795  0032               	movlb	18	; select bank18
  2090  0796  0099               	movwf	25	;volatile
  2091                           
  2092                           ;mcc.c: 92: OSCCON3 = 0x00;
  2093  0797  019B               	clrf	27	;volatile
  2094                           
  2095                           ;mcc.c: 94: OSCEN = 0x00;
  2096  0798  019D               	clrf	29	;volatile
  2097                           
  2098                           ;mcc.c: 96: OSCFRQ = 0x03;
  2099  0799  3003               	movlw	3
  2100  079A  009F               	movwf	31	;volatile
  2101                           
  2102                           ;mcc.c: 98: OSCTUNE = 0x00;
  2103  079B  019E               	clrf	30	;volatile
  2104  079C                     l104:	
  2105                           ;mcc.c: 101: {
  2106                           
  2107                           ;mcc.c: 100: while(PLLR == 0)
  2108                           
  2109  079C  181C               	btfsc	28,0	;volatile
  2110  079D  0008               	return
  2111  079E  2F9C               	goto	l104
  2112  079F                     __end_of_OSCILLATOR_Initialize:	
  2113                           
  2114                           	psect	text5
  2115  0789                     __ptext5:	
  2116 ;; *************** function _EUSART_Initialize *****************
  2117 ;; Defined at:
  2118 ;;		line 55 in file "mcc_generated_files/eusart.c"
  2119 ;; Parameters:    Size  Location     Type
  2120 ;;		None
  2121 ;; Auto vars:     Size  Location     Type
  2122 ;;		None
  2123 ;; Return value:  Size  Location     Type
  2124 ;;                  1    wreg      void 
  2125 ;; Registers used:
  2126 ;;		wreg, status,2
  2127 ;; Tracked objects:
  2128 ;;		On entry : 0/0
  2129 ;;		On exit  : 0/0
  2130 ;;		Unchanged: 0/0
  2131 ;; Data sizes:     COMMON   BANK0   BANK1   BANK2
  2132 ;;      Params:         0       0       0       0
  2133 ;;      Locals:         0       0       0       0
  2134 ;;      Temps:          0       0       0       0
  2135 ;;      Totals:         0       0       0       0
  2136 ;;Total ram usage:        0 bytes
  2137 ;; Hardware stack levels used:    1
  2138 ;; This function calls:
  2139 ;;		Nothing
  2140 ;; This function is called by:
  2141 ;;		_SYSTEM_Initialize
  2142 ;; This function uses a non-reentrant model
  2143 ;;
  2144                           
  2145                           
  2146                           ;psect for function _EUSART_Initialize
  2147  0789                     _EUSART_Initialize:	
  2148                           
  2149                           ;eusart.c: 60: BAUD1CON = 0x08;
  2150                           
  2151                           ;incstack = 0
  2152                           ; Regs used in _EUSART_Initialize: [wreg+status,2]
  2153  0789  3008               	movlw	8
  2154  078A  0023               	movlb	3	; select bank3
  2155  078B  009F               	movwf	31	;volatile
  2156                           
  2157                           ;eusart.c: 63: RC1STA = 0x90;
  2158  078C  3090               	movlw	144
  2159  078D  009D               	movwf	29	;volatile
  2160                           
  2161                           ;eusart.c: 66: TX1STA = 0x04;
  2162  078E  3004               	movlw	4
  2163  078F  009E               	movwf	30	;volatile
  2164                           
  2165                           ;eusart.c: 69: SP1BRGL = 0xFF;
  2166  0790  30FF               	movlw	255
  2167  0791  009B               	movwf	27	;volatile
  2168                           
  2169                           ;eusart.c: 72: SP1BRGH = 0x00;
  2170  0792  019C               	clrf	28	;volatile
  2171  0793  0008               	return
  2172  0794                     __end_of_EUSART_Initialize:	
  2173                           
  2174                           	psect	text6
  2175  07AF                     __ptext6:	
  2176 ;; *************** function _CLC2_Initialize *****************
  2177 ;; Defined at:
  2178 ;;		line 57 in file "mcc_generated_files/clc2.c"
  2179 ;; Parameters:    Size  Location     Type
  2180 ;;		None
  2181 ;; Auto vars:     Size  Location     Type
  2182 ;;		None
  2183 ;; Return value:  Size  Location     Type
  2184 ;;                  1    wreg      void 
  2185 ;; Registers used:
  2186 ;;		wreg, status,2
  2187 ;; Tracked objects:
  2188 ;;		On entry : 0/0
  2189 ;;		On exit  : 0/0
  2190 ;;		Unchanged: 0/0
  2191 ;; Data sizes:     COMMON   BANK0   BANK1   BANK2
  2192 ;;      Params:         0       0       0       0
  2193 ;;      Locals:         0       0       0       0
  2194 ;;      Temps:          0       0       0       0
  2195 ;;      Totals:         0       0       0       0
  2196 ;;Total ram usage:        0 bytes
  2197 ;; Hardware stack levels used:    1
  2198 ;; This function calls:
  2199 ;;		Nothing
  2200 ;; This function is called by:
  2201 ;;		_SYSTEM_Initialize
  2202 ;; This function uses a non-reentrant model
  2203 ;;
  2204                           
  2205                           
  2206                           ;psect for function _CLC2_Initialize
  2207  07AF                     _CLC2_Initialize:	
  2208                           
  2209                           ;clc2.c: 62: CLC2POL = 0x02;
  2210                           
  2211                           ;incstack = 0
  2212                           ; Regs used in _CLC2_Initialize: [wreg+status,2]
  2213  07AF  3002               	movlw	2
  2214  07B0  003E               	movlb	30	; select bank30
  2215  07B1  009B               	movwf	27	;volatile
  2216                           
  2217                           ;clc2.c: 65: CLC2SEL0 = 0x02;
  2218  07B2  3002               	movlw	2
  2219  07B3  009C               	movwf	28	;volatile
  2220                           
  2221                           ;clc2.c: 68: CLC2SEL1 = 0x00;
  2222  07B4  019D               	clrf	29	;volatile
  2223                           
  2224                           ;clc2.c: 71: CLC2SEL2 = 0x00;
  2225  07B5  019E               	clrf	30	;volatile
  2226                           
  2227                           ;clc2.c: 74: CLC2SEL3 = 0x00;
  2228  07B6  019F               	clrf	31	;volatile
  2229                           
  2230                           ;clc2.c: 77: CLC2GLS0 = 0x02;
  2231  07B7  3002               	movlw	2
  2232  07B8  00A0               	movwf	32	;volatile
  2233                           
  2234                           ;clc2.c: 80: CLC2GLS1 = 0x00;
  2235  07B9  01A1               	clrf	33	;volatile
  2236                           
  2237                           ;clc2.c: 83: CLC2GLS2 = 0x00;
  2238  07BA  01A2               	clrf	34	;volatile
  2239                           
  2240                           ;clc2.c: 86: CLC2GLS3 = 0x00;
  2241  07BB  01A3               	clrf	35	;volatile
  2242                           
  2243                           ;clc2.c: 89: CLC2CON = 0x80;
  2244  07BC  3080               	movlw	128
  2245  07BD  009A               	movwf	26	;volatile
  2246  07BE  0008               	return
  2247  07BF                     __end_of_CLC2_Initialize:	
  2248                           
  2249                           	psect	text7
  2250  079F                     __ptext7:	
  2251 ;; *************** function _CLC1_Initialize *****************
  2252 ;; Defined at:
  2253 ;;		line 57 in file "mcc_generated_files/clc1.c"
  2254 ;; Parameters:    Size  Location     Type
  2255 ;;		None
  2256 ;; Auto vars:     Size  Location     Type
  2257 ;;		None
  2258 ;; Return value:  Size  Location     Type
  2259 ;;                  1    wreg      void 
  2260 ;; Registers used:
  2261 ;;		wreg, status,2
  2262 ;; Tracked objects:
  2263 ;;		On entry : 0/0
  2264 ;;		On exit  : 0/0
  2265 ;;		Unchanged: 0/0
  2266 ;; Data sizes:     COMMON   BANK0   BANK1   BANK2
  2267 ;;      Params:         0       0       0       0
  2268 ;;      Locals:         0       0       0       0
  2269 ;;      Temps:          0       0       0       0
  2270 ;;      Totals:         0       0       0       0
  2271 ;;Total ram usage:        0 bytes
  2272 ;; Hardware stack levels used:    1
  2273 ;; This function calls:
  2274 ;;		Nothing
  2275 ;; This function is called by:
  2276 ;;		_SYSTEM_Initialize
  2277 ;; This function uses a non-reentrant model
  2278 ;;
  2279                           
  2280                           
  2281                           ;psect for function _CLC1_Initialize
  2282  079F                     _CLC1_Initialize:	
  2283                           
  2284                           ;clc1.c: 62: CLC1POL = 0x02;
  2285                           
  2286                           ;incstack = 0
  2287                           ; Regs used in _CLC1_Initialize: [wreg+status,2]
  2288  079F  3002               	movlw	2
  2289  07A0  003E               	movlb	30	; select bank30
  2290  07A1  0091               	movwf	17	;volatile
  2291                           
  2292                           ;clc1.c: 65: CLC1SEL0 = 0x00;
  2293  07A2  0192               	clrf	18	;volatile
  2294                           
  2295                           ;clc1.c: 68: CLC1SEL1 = 0x01;
  2296  07A3  3001               	movlw	1
  2297  07A4  0093               	movwf	19	;volatile
  2298                           
  2299                           ;clc1.c: 71: CLC1SEL2 = 0x00;
  2300  07A5  0194               	clrf	20	;volatile
  2301                           
  2302                           ;clc1.c: 74: CLC1SEL3 = 0x00;
  2303  07A6  0195               	clrf	21	;volatile
  2304                           
  2305                           ;clc1.c: 77: CLC1GLS0 = 0x0A;
  2306  07A7  300A               	movlw	10
  2307  07A8  0096               	movwf	22	;volatile
  2308                           
  2309                           ;clc1.c: 80: CLC1GLS1 = 0x00;
  2310  07A9  0197               	clrf	23	;volatile
  2311                           
  2312                           ;clc1.c: 83: CLC1GLS2 = 0x00;
  2313  07AA  0198               	clrf	24	;volatile
  2314                           
  2315                           ;clc1.c: 86: CLC1GLS3 = 0x00;
  2316  07AB  0199               	clrf	25	;volatile
  2317                           
  2318                           ;clc1.c: 89: CLC1CON = 0x80;
  2319  07AC  3080               	movlw	128
  2320  07AD  0090               	movwf	16	;volatile
  2321  07AE  0008               	return
  2322  07AF                     __end_of_CLC1_Initialize:	
  2323  007E                     btemp	set	126	;btemp
  2324  007E                     wtemp0	set	126


Data Sizes:
    Strings     0
    Constant    0
    Data        0
    BSS         0
    Persistent  0
    Stack       0

Auto Spaces:
    Space          Size  Autos    Used
    COMMON           14      1       1
    BANK0            80      0       0
    BANK1            80      0       0
    BANK2            80      0       0

Pointer List with Targets:

    None.

Critical Paths under _main in COMMON

    _SYSTEM_Initialize->_PIN_MANAGER_Initialize

Critical Paths under _main in BANK0

    None.

Critical Paths under _main in BANK1

    None.

Critical Paths under _main in BANK2

    None.

Call Graph Tables:

 ---------------------------------------------------------------------------------
 (Depth) Function   	        Calls       Base Space   Used Autos Params    Refs
 ---------------------------------------------------------------------------------
 (0) _main                                                 0     0      0      15
                  _SYSTEM_Initialize
 ---------------------------------------------------------------------------------
 (1) _SYSTEM_Initialize                                    0     0      0      15
                    _CLC1_Initialize
                    _CLC2_Initialize
                  _EUSART_Initialize
              _OSCILLATOR_Initialize
             _PIN_MANAGER_Initialize
                     _WDT_Initialize
 ---------------------------------------------------------------------------------
 (2) _WDT_Initialize                                       0     0      0       0
 ---------------------------------------------------------------------------------
 (2) _PIN_MANAGER_Initialize                               1     1      0      15
                                              0 COMMON     1     1      0
 ---------------------------------------------------------------------------------
 (2) _OSCILLATOR_Initialize                                0     0      0       0
 ---------------------------------------------------------------------------------
 (2) _EUSART_Initialize                                    0     0      0       0
 ---------------------------------------------------------------------------------
 (2) _CLC2_Initialize                                      0     0      0       0
 ---------------------------------------------------------------------------------
 (2) _CLC1_Initialize                                      0     0      0       0
 ---------------------------------------------------------------------------------
 Estimated maximum stack depth 2
 ---------------------------------------------------------------------------------

 Call Graph Graphs:

 _main (ROOT)
   _SYSTEM_Initialize
     _CLC1_Initialize
     _CLC2_Initialize
     _EUSART_Initialize
     _OSCILLATOR_Initialize
     _PIN_MANAGER_Initialize
     _WDT_Initialize

 Address spaces:
Name               Size   Autos  Total    Cost      Usage
BIGRAM              F0      0       0       0        0.0%
EEDATA             100      0       0       0        0.0%
NULL                 0      0       0       0        0.0%
CODE                 0      0       0       0        0.0%
BITCOMMON            E      0       0       1        0.0%
BITSFR0              0      0       0       1        0.0%
SFR0                 0      0       0       1        0.0%
COMMON               E      1       1       2        7.1%
BITSFR1              0      0       0       2        0.0%
SFR1                 0      0       0       2        0.0%
BITSFR2              0      0       0       3        0.0%
SFR2                 0      0       0       3        0.0%
STACK                0      0       0       3        0.0%
BITSFR3              0      0       0       4        0.0%
SFR3                 0      0       0       4        0.0%
ABS                  0      0       0       4        0.0%
BITBANK0            50      0       0       5        0.0%
BITSFR4              0      0       0       5        0.0%
SFR4                 0      0       0       5        0.0%
BANK0               50      0       0       6        0.0%
BITSFR5              0      0       0       6        0.0%
SFR5                 0      0       0       6        0.0%
BITBANK1            50      0       0       7        0.0%
BITSFR6              0      0       0       7        0.0%
SFR6                 0      0       0       7        0.0%
BANK1               50      0       0       8        0.0%
BITSFR7              0      0       0       8        0.0%
SFR7                 0      0       0       8        0.0%
BITBANK2            50      0       0       9        0.0%
BITSFR8              0      0       0       9        0.0%
SFR8                 0      0       0       9        0.0%
BANK2               50      0       0      10        0.0%
BITSFR9              0      0       0      10        0.0%
SFR9                 0      0       0      10        0.0%
BITSFR10             0      0       0      11        0.0%
SFR10                0      0       0      11        0.0%
DATA                 0      0       0      11        0.0%
BITSFR11             0      0       0      12        0.0%
SFR11                0      0       0      12        0.0%
BITSFR12             0      0       0      13        0.0%
SFR12                0      0       0      13        0.0%
BITSFR13             0      0       0      14        0.0%
SFR13                0      0       0      14        0.0%
BITSFR14             0      0       0      15        0.0%
SFR14                0      0       0      15        0.0%
BITSFR15             0      0       0      16        0.0%
SFR15                0      0       0      16        0.0%
BITSFR16             0      0       0      17        0.0%
SFR16                0      0       0      17        0.0%
BITSFR17             0      0       0      18        0.0%
SFR17                0      0       0      18        0.0%
BITSFR18             0      0       0      19        0.0%
SFR18                0      0       0      19        0.0%
BITSFR19             0      0       0      20        0.0%
SFR19                0      0       0      20        0.0%
BITSFR20             0      0       0      21        0.0%
SFR20                0      0       0      21        0.0%
BITSFR21             0      0       0      22        0.0%
SFR21                0      0       0      22        0.0%
BITSFR22             0      0       0      23        0.0%
SFR22                0      0       0      23        0.0%
BITSFR23             0      0       0      24        0.0%
SFR23                0      0       0      24        0.0%
BITSFR24             0      0       0      25        0.0%
SFR24                0      0       0      25        0.0%
BITSFR25             0      0       0      26        0.0%
SFR25                0      0       0      26        0.0%
BITSFR26             0      0       0      27        0.0%
SFR26                0      0       0      27        0.0%
BITSFR27             0      0       0      28        0.0%
SFR27                0      0       0      28        0.0%
BITSFR28             0      0       0      29        0.0%
SFR28                0      0       0      29        0.0%
BITSFR29             0      0       0      30        0.0%
SFR29                0      0       0      30        0.0%
BITSFR30             0      0       0      31        0.0%
SFR30                0      0       0      31        0.0%
BITSFR31             0      0       0      32        0.0%
SFR31                0      0       0      32        0.0%


Microchip Technology PIC Macro Assembler V1.42 build -159332390 
Symbol Table                                                                                   Sat Dec 16 22:48:29 2017

                    __CFG_CP$OFF 0000                               u10 07FC                      __CFG_LVP$ON 0000  
                            l104 079C                              l179 077D                              _GIE 005F  
                   __CFG_CPD$OFF 0000                ??_CLC2_Initialize 0070                             _LATA 010C  
                           _LATC 010E                             _PLLR 48E0                             _WPUA 020C  
                           _WPUC 020E                     __CFG_WRT$OFF 0000                    __CFG_FCMEN$ON 0000  
                           _main 077C                             btemp 007E                    __CFG_BOREN$ON 0000  
                  __CFG_BORV$LOW 0000                             start 0001                    __CFG_CSWEN$ON 0000  
 __size_of_OSCILLATOR_Initialize 000B    __end_of_OSCILLATOR_Initialize 079F                            ?_main 0070  
                  __CFG_WDTE$OFF 0000                   __CFG_DEBUG$OFF 0000                            _OSCEN 091D  
                          _TRISA 008C                            _TRISC 008E                   _WDT_Initialize 077E  
                          wtemp0 007E                   __CFG_MCLRE$OFF 0000                  __initialization 07FE  
                   __end_of_main 077E                           ??_main 0071           __end_of_WDT_Initialize 0782  
                         _ANSELA 018C                           _ANSELC 018E                           _RC1REG 0199  
                         _RC1STA 019D                           _ODCONA 028C                           _ODCONC 028E  
                         _OSCFRQ 091F                           _TX1REG 019A                           _WDTCON 0097  
                         _TX1STA 019E                   __CFG_PWRTE$OFF 0000                   __CFG_STVREN$ON 0000  
                ?_WDT_Initialize 0070                  _CLC1_Initialize 079F                _SYSTEM_Initialize 0782  
        __end_of__initialization 07FE               ?_SYSTEM_Initialize 0070                   __pcstackCOMMON 0070  
            ??_SYSTEM_Initialize 0071                  _CLC2_Initialize 07AF        __end_of_SYSTEM_Initialize 0789  
                     __pmaintext 077C                    _CLCIN0PPSbits 0E28                    _CLCIN1PPSbits 0E29  
                  _CLCIN2PPSbits 0E2A                  __CFG_PPS1WAY$ON 0000                          _CLC1CON 0F10  
                        _CLC2CON 0F1A                          _CLC1POL 0F11                          _CLC2POL 0F1B  
        __end_of_CLC1_Initialize 07AF                          _SP1BRGH 019C                          _SP1BRGL 019B  
                        _OSCCON1 0919                          _OSCCON3 091B                          _OSCTUNE 091E  
                        _PPSLOCK 0E0F          __end_of_CLC2_Initialize 07BF                          __ptext1 0782  
                        __ptext2 077E                          __ptext3 07BF                          __ptext4 0794  
                        __ptext5 0789                          __ptext6 07AF                          __ptext7 079F  
          _OSCILLATOR_Initialize 0794         ??_PIN_MANAGER_Initialize 0070       __size_of_SYSTEM_Initialize 0007  
           end_of_initialization 07FE                _EUSART_Initialize 0789               ?_EUSART_Initialize 0070  
            ??_EUSART_Initialize 0070                 ??_WDT_Initialize 0070                 ?_CLC1_Initialize 0070  
               __CFG_FEXTOSC$ECM 0000                        _RXPPSbits 0E24        __end_of_EUSART_Initialize 0794  
               ?_CLC2_Initialize 0070                      _CLC1CONbits 0F10                      _CLC2CONbits 0F1A  
         ?_OSCILLATOR_Initialize 0070              start_initialization 07FE  __size_of_PIN_MANAGER_Initialize 003F  
              __CFG_RSTOSC$EXT4X 0000                 __CFG_LPBOREN$OFF 0000                        ___latbits 0000  
     __size_of_EUSART_Initialize 000B           _PIN_MANAGER_Initialize 07BF                         _BAUD1CON 019F  
                       _CLC1GLS0 0F16                         _CLC1GLS1 0F17                         _CLC1GLS2 0F18  
                       _CLC1GLS3 0F19                         _CLC2GLS0 0F20                         _CLC2GLS1 0F21  
                       _CLC2GLS2 0F22                         _CLC2GLS3 0F23                         _CLC1SEL0 0F12  
                       _CLC1SEL1 0F13                         _CLC1SEL2 0F14                         _CLC1SEL3 0F15  
                       _CLC2SEL0 0F1C                         _CLC2SEL1 0F1D                         _CLC2SEL2 0F1E  
                       _CLC2SEL3 0F1F                         _PIR1bits 0011          ??_OSCILLATOR_Initialize 0070  
       __size_of_CLC1_Initialize 0010                    __size_of_main 0002                       _RC1STAbits 019D  
                     _RC3PPSbits 0EA3                       _RC5PPSbits 0EA5         __size_of_CLC2_Initialize 0010  
    PIN_MANAGER_Initialize@state 0070          __size_of_WDT_Initialize 0004          ?_PIN_MANAGER_Initialize 0070  
              __CFG_CLKOUTEN$OFF 0000                      _PPSLOCKbits 0E0F   __end_of_PIN_MANAGER_Initialize 07FE  
              ??_CLC1_Initialize 0070  
